ARM GAS  C:\Users\PC69\AppData\Local\Temp\cchFQXNr.s 			page 1


   1              		.cpu cortex-m0
   2              		.fpu softvfp
   3              		.eabi_attribute 20, 1
   4              		.eabi_attribute 21, 1
   5              		.eabi_attribute 23, 3
   6              		.eabi_attribute 24, 1
   7              		.eabi_attribute 25, 1
   8              		.eabi_attribute 26, 1
   9              		.eabi_attribute 30, 4
  10              		.eabi_attribute 34, 0
  11              		.eabi_attribute 18, 4
  12              		.code	16
  13              		.file	"Bootloader.c"
  14              		.text
  15              	.Ltext0:
  16              		.cfi_sections	.debug_frame
  17              		.section	.text.Bootloader_LaunchBootloadable,"ax",%progbits
  18              		.align	1
  19              		.code	16
  20              		.thumb_func
  21              		.type	Bootloader_LaunchBootloadable, %function
  22              	Bootloader_LaunchBootloadable:
  23              	.LFB39:
  24              		.file 1 ".\\Generated_Source\\PSoC4\\Bootloader.c"
   1:.\Generated_Source\PSoC4/Bootloader.c **** /*******************************************************************************
   2:.\Generated_Source\PSoC4/Bootloader.c **** * File Name: Bootloader.c
   3:.\Generated_Source\PSoC4/Bootloader.c **** * Version 1.30
   4:.\Generated_Source\PSoC4/Bootloader.c **** *
   5:.\Generated_Source\PSoC4/Bootloader.c **** *  Description:
   6:.\Generated_Source\PSoC4/Bootloader.c **** *   Provides an API for the Bootloader component. The API includes functions
   7:.\Generated_Source\PSoC4/Bootloader.c **** *   for starting boot loading operations, validating the application and
   8:.\Generated_Source\PSoC4/Bootloader.c **** *   jumping to the application.
   9:.\Generated_Source\PSoC4/Bootloader.c **** *
  10:.\Generated_Source\PSoC4/Bootloader.c **** ********************************************************************************
  11:.\Generated_Source\PSoC4/Bootloader.c **** * Copyright 2008-2014, Cypress Semiconductor Corporation.  All rights reserved.
  12:.\Generated_Source\PSoC4/Bootloader.c **** * You may use this file only in accordance with the license, terms, conditions,
  13:.\Generated_Source\PSoC4/Bootloader.c **** * disclaimers, and limitations in the end user license agreement accompanying
  14:.\Generated_Source\PSoC4/Bootloader.c **** * the software package with which this file was provided.
  15:.\Generated_Source\PSoC4/Bootloader.c **** *******************************************************************************/
  16:.\Generated_Source\PSoC4/Bootloader.c **** 
  17:.\Generated_Source\PSoC4/Bootloader.c **** #include "Bootloader_PVT.h"
  18:.\Generated_Source\PSoC4/Bootloader.c **** 
  19:.\Generated_Source\PSoC4/Bootloader.c **** #include "project.h"
  20:.\Generated_Source\PSoC4/Bootloader.c **** #include <string.h>
  21:.\Generated_Source\PSoC4/Bootloader.c **** 
  22:.\Generated_Source\PSoC4/Bootloader.c **** 
  23:.\Generated_Source\PSoC4/Bootloader.c **** /*******************************************************************************
  24:.\Generated_Source\PSoC4/Bootloader.c **** * The Checksum and SizeBytes are forcefully set in code. We then post process
  25:.\Generated_Source\PSoC4/Bootloader.c **** * the hex file from the linker and inject their values then. When the hex file
  26:.\Generated_Source\PSoC4/Bootloader.c **** * is loaded onto the device these two variables should have valid values.
  27:.\Generated_Source\PSoC4/Bootloader.c **** * Because the compiler can do optimizations to remove the constant
  28:.\Generated_Source\PSoC4/Bootloader.c **** * accesses, these should not be accessed directly. Instead, the variables
  29:.\Generated_Source\PSoC4/Bootloader.c **** * CyBtldr_ChecksumAccess & CyBtldr_SizeBytesAccess should be used to get the
  30:.\Generated_Source\PSoC4/Bootloader.c **** * proper values at runtime.
  31:.\Generated_Source\PSoC4/Bootloader.c **** *******************************************************************************/
  32:.\Generated_Source\PSoC4/Bootloader.c **** #if defined(__ARMCC_VERSION) || defined (__GNUC__)
  33:.\Generated_Source\PSoC4/Bootloader.c ****     __attribute__((section (".bootloader"), used))
ARM GAS  C:\Users\PC69\AppData\Local\Temp\cchFQXNr.s 			page 2


  34:.\Generated_Source\PSoC4/Bootloader.c **** #elif defined (__ICCARM__)
  35:.\Generated_Source\PSoC4/Bootloader.c ****     #pragma location=".bootloader"
  36:.\Generated_Source\PSoC4/Bootloader.c **** #endif  /* defined(__ARMCC_VERSION) || defined (__GNUC__) */
  37:.\Generated_Source\PSoC4/Bootloader.c **** 
  38:.\Generated_Source\PSoC4/Bootloader.c **** #if defined(__ARMCC_VERSION) || defined (__GNUC__) || defined (__C51__)
  39:.\Generated_Source\PSoC4/Bootloader.c ****            const uint8  CYCODE Bootloader_Checksum = 0u;
  40:.\Generated_Source\PSoC4/Bootloader.c **** #elif defined (__ICCARM__)
  41:.\Generated_Source\PSoC4/Bootloader.c ****     __root const uint8  CYCODE Bootloader_Checksum = 0u;
  42:.\Generated_Source\PSoC4/Bootloader.c **** #endif  /* defined(__ARMCC_VERSION) || defined (__GNUC__) || defined (__C51__) */
  43:.\Generated_Source\PSoC4/Bootloader.c **** const uint8  CYCODE *Bootloader_ChecksumAccess  = (const uint8  CYCODE *)(&Bootloader_Checksum);
  44:.\Generated_Source\PSoC4/Bootloader.c **** 
  45:.\Generated_Source\PSoC4/Bootloader.c **** #if defined(__ARMCC_VERSION) || defined (__GNUC__)
  46:.\Generated_Source\PSoC4/Bootloader.c ****     __attribute__((section (".bootloader"), used))
  47:.\Generated_Source\PSoC4/Bootloader.c **** #elif defined (__ICCARM__)
  48:.\Generated_Source\PSoC4/Bootloader.c ****     #pragma location=".bootloader"
  49:.\Generated_Source\PSoC4/Bootloader.c **** #endif  /* defined(__ARMCC_VERSION) || defined (__GNUC__) */
  50:.\Generated_Source\PSoC4/Bootloader.c **** 
  51:.\Generated_Source\PSoC4/Bootloader.c **** const uint32 CYCODE Bootloader_SizeBytes = 0xFFFFFFFFu;
  52:.\Generated_Source\PSoC4/Bootloader.c **** const uint32 CYCODE *Bootloader_SizeBytesAccess = (const uint32 CYCODE *)(&Bootloader_SizeBytes);
  53:.\Generated_Source\PSoC4/Bootloader.c **** 
  54:.\Generated_Source\PSoC4/Bootloader.c **** 
  55:.\Generated_Source\PSoC4/Bootloader.c **** #if(0u != Bootloader_DUAL_APP_BOOTLOADER)
  56:.\Generated_Source\PSoC4/Bootloader.c ****     uint8 Bootloader_activeApp = Bootloader_MD_BTLDB_ACTIVE_NONE;
  57:.\Generated_Source\PSoC4/Bootloader.c **** #else
  58:.\Generated_Source\PSoC4/Bootloader.c ****     #define Bootloader_activeApp      (Bootloader_MD_BTLDB_ACTIVE_0)
  59:.\Generated_Source\PSoC4/Bootloader.c **** #endif  /* (0u != Bootloader_DUAL_APP_BOOTLOADER) */
  60:.\Generated_Source\PSoC4/Bootloader.c **** 
  61:.\Generated_Source\PSoC4/Bootloader.c **** 
  62:.\Generated_Source\PSoC4/Bootloader.c **** /***************************************
  63:.\Generated_Source\PSoC4/Bootloader.c **** *     Function Prototypes
  64:.\Generated_Source\PSoC4/Bootloader.c **** ***************************************/
  65:.\Generated_Source\PSoC4/Bootloader.c **** static cystatus Bootloader_WritePacket(uint8 status, uint8 buffer[], uint16 size) CYSMALL \
  66:.\Generated_Source\PSoC4/Bootloader.c ****                                     ;
  67:.\Generated_Source\PSoC4/Bootloader.c **** 
  68:.\Generated_Source\PSoC4/Bootloader.c **** static uint16   Bootloader_CalcPacketChecksum(const uint8 buffer[], uint16 size) CYSMALL \
  69:.\Generated_Source\PSoC4/Bootloader.c ****                                     ;
  70:.\Generated_Source\PSoC4/Bootloader.c **** 
  71:.\Generated_Source\PSoC4/Bootloader.c **** static void     Bootloader_HostLink(uint8 timeOut) \
  72:.\Generated_Source\PSoC4/Bootloader.c ****                                     ;
  73:.\Generated_Source\PSoC4/Bootloader.c **** 
  74:.\Generated_Source\PSoC4/Bootloader.c **** static void     Bootloader_LaunchApplication(void) CYSMALL \
  75:.\Generated_Source\PSoC4/Bootloader.c ****                                     ;
  76:.\Generated_Source\PSoC4/Bootloader.c **** 
  77:.\Generated_Source\PSoC4/Bootloader.c **** #if(!CY_PSOC3)
  78:.\Generated_Source\PSoC4/Bootloader.c ****     /* Implementation for the PSoC 3 resides in a Bootloader_psoc3.a51 file.  */
  79:.\Generated_Source\PSoC4/Bootloader.c ****     static void     Bootloader_LaunchBootloadable(uint32 appAddr);
  80:.\Generated_Source\PSoC4/Bootloader.c **** #endif  /* (!CY_PSOC3) */
  81:.\Generated_Source\PSoC4/Bootloader.c **** 
  82:.\Generated_Source\PSoC4/Bootloader.c **** 
  83:.\Generated_Source\PSoC4/Bootloader.c **** /*******************************************************************************
  84:.\Generated_Source\PSoC4/Bootloader.c **** * Function Name: Bootloader_CalcPacketChecksum
  85:.\Generated_Source\PSoC4/Bootloader.c **** ********************************************************************************
  86:.\Generated_Source\PSoC4/Bootloader.c **** *
  87:.\Generated_Source\PSoC4/Bootloader.c **** * Summary:
  88:.\Generated_Source\PSoC4/Bootloader.c **** *  This computes the 16 bit checksum for the provided number of bytes contained
  89:.\Generated_Source\PSoC4/Bootloader.c **** *  in the provided buffer
  90:.\Generated_Source\PSoC4/Bootloader.c **** *
ARM GAS  C:\Users\PC69\AppData\Local\Temp\cchFQXNr.s 			page 3


  91:.\Generated_Source\PSoC4/Bootloader.c **** * Parameters:
  92:.\Generated_Source\PSoC4/Bootloader.c **** *  buffer:
  93:.\Generated_Source\PSoC4/Bootloader.c **** *     The buffer containing the data to compute the checksum for
  94:.\Generated_Source\PSoC4/Bootloader.c **** *  size:
  95:.\Generated_Source\PSoC4/Bootloader.c **** *     The number of bytes in the buffer to compute the checksum for
  96:.\Generated_Source\PSoC4/Bootloader.c **** *
  97:.\Generated_Source\PSoC4/Bootloader.c **** * Returns:
  98:.\Generated_Source\PSoC4/Bootloader.c **** *  16 bit checksum for the provided data
  99:.\Generated_Source\PSoC4/Bootloader.c **** *
 100:.\Generated_Source\PSoC4/Bootloader.c **** *******************************************************************************/
 101:.\Generated_Source\PSoC4/Bootloader.c **** static uint16 Bootloader_CalcPacketChecksum(const uint8 buffer[], uint16 size) \
 102:.\Generated_Source\PSoC4/Bootloader.c ****                     CYSMALL 
 103:.\Generated_Source\PSoC4/Bootloader.c **** {
 104:.\Generated_Source\PSoC4/Bootloader.c ****     #if(0u != Bootloader_PACKET_CHECKSUM_CRC)
 105:.\Generated_Source\PSoC4/Bootloader.c **** 
 106:.\Generated_Source\PSoC4/Bootloader.c ****         uint16 CYDATA crc = Bootloader_CRC_CCITT_INITIAL_VALUE;
 107:.\Generated_Source\PSoC4/Bootloader.c ****         uint16 CYDATA tmp;
 108:.\Generated_Source\PSoC4/Bootloader.c ****         uint8  CYDATA i;
 109:.\Generated_Source\PSoC4/Bootloader.c ****         uint16 CYDATA tmpIndex = size;
 110:.\Generated_Source\PSoC4/Bootloader.c **** 
 111:.\Generated_Source\PSoC4/Bootloader.c ****         if(0u == size)
 112:.\Generated_Source\PSoC4/Bootloader.c ****         {
 113:.\Generated_Source\PSoC4/Bootloader.c ****             crc = ~crc;
 114:.\Generated_Source\PSoC4/Bootloader.c ****         }
 115:.\Generated_Source\PSoC4/Bootloader.c ****         else
 116:.\Generated_Source\PSoC4/Bootloader.c ****         {
 117:.\Generated_Source\PSoC4/Bootloader.c ****             do
 118:.\Generated_Source\PSoC4/Bootloader.c ****             {
 119:.\Generated_Source\PSoC4/Bootloader.c ****                 tmp = buffer[tmpIndex - size];
 120:.\Generated_Source\PSoC4/Bootloader.c **** 
 121:.\Generated_Source\PSoC4/Bootloader.c ****                 for (i = 0u; i < 8u; i++)
 122:.\Generated_Source\PSoC4/Bootloader.c ****                 {
 123:.\Generated_Source\PSoC4/Bootloader.c ****                     if (0u != ((crc & 0x0001u) ^ (tmp & 0x0001u)))
 124:.\Generated_Source\PSoC4/Bootloader.c ****                     {
 125:.\Generated_Source\PSoC4/Bootloader.c ****                         crc = (crc >> 1u) ^ Bootloader_CRC_CCITT_POLYNOMIAL;
 126:.\Generated_Source\PSoC4/Bootloader.c ****                     }
 127:.\Generated_Source\PSoC4/Bootloader.c ****                     else
 128:.\Generated_Source\PSoC4/Bootloader.c ****                     {
 129:.\Generated_Source\PSoC4/Bootloader.c ****                         crc >>= 1u;
 130:.\Generated_Source\PSoC4/Bootloader.c ****                     }
 131:.\Generated_Source\PSoC4/Bootloader.c **** 
 132:.\Generated_Source\PSoC4/Bootloader.c ****                     tmp >>= 1u;
 133:.\Generated_Source\PSoC4/Bootloader.c ****                 }
 134:.\Generated_Source\PSoC4/Bootloader.c **** 
 135:.\Generated_Source\PSoC4/Bootloader.c ****                 size--;
 136:.\Generated_Source\PSoC4/Bootloader.c ****             }
 137:.\Generated_Source\PSoC4/Bootloader.c ****             while(0u != size);
 138:.\Generated_Source\PSoC4/Bootloader.c **** 
 139:.\Generated_Source\PSoC4/Bootloader.c ****             crc = ~crc;
 140:.\Generated_Source\PSoC4/Bootloader.c ****             tmp = crc;
 141:.\Generated_Source\PSoC4/Bootloader.c ****             crc = ( uint16 )(crc << 8u) | (tmp >> 8u);
 142:.\Generated_Source\PSoC4/Bootloader.c ****         }
 143:.\Generated_Source\PSoC4/Bootloader.c **** 
 144:.\Generated_Source\PSoC4/Bootloader.c ****         return(crc);
 145:.\Generated_Source\PSoC4/Bootloader.c **** 
 146:.\Generated_Source\PSoC4/Bootloader.c ****     #else
 147:.\Generated_Source\PSoC4/Bootloader.c **** 
ARM GAS  C:\Users\PC69\AppData\Local\Temp\cchFQXNr.s 			page 4


 148:.\Generated_Source\PSoC4/Bootloader.c ****         uint16 CYDATA sum = 0u;
 149:.\Generated_Source\PSoC4/Bootloader.c **** 
 150:.\Generated_Source\PSoC4/Bootloader.c ****         while (size > 0u)
 151:.\Generated_Source\PSoC4/Bootloader.c ****         {
 152:.\Generated_Source\PSoC4/Bootloader.c ****             sum += buffer[size - 1u];
 153:.\Generated_Source\PSoC4/Bootloader.c ****             size--;
 154:.\Generated_Source\PSoC4/Bootloader.c ****         }
 155:.\Generated_Source\PSoC4/Bootloader.c **** 
 156:.\Generated_Source\PSoC4/Bootloader.c ****         return(( uint16 )1u + ( uint16 )(~sum));
 157:.\Generated_Source\PSoC4/Bootloader.c **** 
 158:.\Generated_Source\PSoC4/Bootloader.c ****     #endif /* (0u != Bootloader_PACKET_CHECKSUM_CRC) */
 159:.\Generated_Source\PSoC4/Bootloader.c **** }
 160:.\Generated_Source\PSoC4/Bootloader.c **** 
 161:.\Generated_Source\PSoC4/Bootloader.c **** 
 162:.\Generated_Source\PSoC4/Bootloader.c **** /*******************************************************************************
 163:.\Generated_Source\PSoC4/Bootloader.c **** * Function Name: Bootloader_Calc8BitSum
 164:.\Generated_Source\PSoC4/Bootloader.c **** ********************************************************************************
 165:.\Generated_Source\PSoC4/Bootloader.c **** *
 166:.\Generated_Source\PSoC4/Bootloader.c **** * Summary:
 167:.\Generated_Source\PSoC4/Bootloader.c **** *  This computes the 8 bit sum for the provided number of bytes contained in
 168:.\Generated_Source\PSoC4/Bootloader.c **** *  FLASH (if baseAddr equals CY_FLASH_BASE) or EEPROM (if baseAddr equals
 169:.\Generated_Source\PSoC4/Bootloader.c **** *  CY_EEPROM_BASE).
 170:.\Generated_Source\PSoC4/Bootloader.c **** *
 171:.\Generated_Source\PSoC4/Bootloader.c **** * Parameters:
 172:.\Generated_Source\PSoC4/Bootloader.c **** * baseAddr:
 173:.\Generated_Source\PSoC4/Bootloader.c **** *   CY_FLASH_BASE
 174:.\Generated_Source\PSoC4/Bootloader.c **** *   CY_EEPROM_BASE - applicable only for PSoC 3 / PSoC 5LP devices.
 175:.\Generated_Source\PSoC4/Bootloader.c **** *
 176:.\Generated_Source\PSoC4/Bootloader.c **** *  start:
 177:.\Generated_Source\PSoC4/Bootloader.c **** *     The starting address to start summing data for
 178:.\Generated_Source\PSoC4/Bootloader.c **** *  size:
 179:.\Generated_Source\PSoC4/Bootloader.c **** *     The number of bytes to read and compute the sum for
 180:.\Generated_Source\PSoC4/Bootloader.c **** *
 181:.\Generated_Source\PSoC4/Bootloader.c **** * Returns:
 182:.\Generated_Source\PSoC4/Bootloader.c **** *   8 bit sum for the provided data
 183:.\Generated_Source\PSoC4/Bootloader.c **** *
 184:.\Generated_Source\PSoC4/Bootloader.c **** *******************************************************************************/
 185:.\Generated_Source\PSoC4/Bootloader.c **** uint8 Bootloader_Calc8BitSum(uint32 baseAddr, uint32 start, uint32 size) \
 186:.\Generated_Source\PSoC4/Bootloader.c ****                 CYSMALL 
 187:.\Generated_Source\PSoC4/Bootloader.c **** {
 188:.\Generated_Source\PSoC4/Bootloader.c ****     uint8 CYDATA sum = 0u;
 189:.\Generated_Source\PSoC4/Bootloader.c **** 
 190:.\Generated_Source\PSoC4/Bootloader.c ****     #if(!CY_PSOC4)
 191:.\Generated_Source\PSoC4/Bootloader.c ****         CYASSERT((baseAddr == CY_EEPROM_BASE) || (baseAddr == CY_FLASH_BASE));
 192:.\Generated_Source\PSoC4/Bootloader.c ****     #else
 193:.\Generated_Source\PSoC4/Bootloader.c ****         CYASSERT(baseAddr == CY_FLASH_BASE);
 194:.\Generated_Source\PSoC4/Bootloader.c ****     #endif  /* (!CY_PSOC4) */
 195:.\Generated_Source\PSoC4/Bootloader.c **** 
 196:.\Generated_Source\PSoC4/Bootloader.c ****     while (size > 0u)
 197:.\Generated_Source\PSoC4/Bootloader.c ****     {
 198:.\Generated_Source\PSoC4/Bootloader.c ****         size--;
 199:.\Generated_Source\PSoC4/Bootloader.c ****         sum += (*((uint8  *)(baseAddr + start + size)));
 200:.\Generated_Source\PSoC4/Bootloader.c ****     }
 201:.\Generated_Source\PSoC4/Bootloader.c **** 
 202:.\Generated_Source\PSoC4/Bootloader.c ****     return(sum);
 203:.\Generated_Source\PSoC4/Bootloader.c **** }
 204:.\Generated_Source\PSoC4/Bootloader.c **** 
ARM GAS  C:\Users\PC69\AppData\Local\Temp\cchFQXNr.s 			page 5


 205:.\Generated_Source\PSoC4/Bootloader.c **** 
 206:.\Generated_Source\PSoC4/Bootloader.c **** /*******************************************************************************
 207:.\Generated_Source\PSoC4/Bootloader.c **** * Function Name: Bootloader_Start
 208:.\Generated_Source\PSoC4/Bootloader.c **** ********************************************************************************
 209:.\Generated_Source\PSoC4/Bootloader.c **** * Summary:
 210:.\Generated_Source\PSoC4/Bootloader.c **** *  This function is called in order to execute the following algorithm:
 211:.\Generated_Source\PSoC4/Bootloader.c **** *
 212:.\Generated_Source\PSoC4/Bootloader.c **** *  - Identify the active bootloadable application (applicable only to
 213:.\Generated_Source\PSoC4/Bootloader.c **** *    the Multi-application bootloader)
 214:.\Generated_Source\PSoC4/Bootloader.c **** *
 215:.\Generated_Source\PSoC4/Bootloader.c **** *  - Validate the bootloader application (design-time configurable, Bootloader
 216:.\Generated_Source\PSoC4/Bootloader.c **** *    application validation option of the component customizer)
 217:.\Generated_Source\PSoC4/Bootloader.c **** *
 218:.\Generated_Source\PSoC4/Bootloader.c **** *  - Validate the active bootloadable application. If active bootloadable
 219:.\Generated_Source\PSoC4/Bootloader.c **** *    application is not valid, and the other bootloadable application (inactive)
 220:.\Generated_Source\PSoC4/Bootloader.c **** *    is valid, the last one is started.
 221:.\Generated_Source\PSoC4/Bootloader.c **** *
 222:.\Generated_Source\PSoC4/Bootloader.c **** *  - Run a communication subroutine (design-time configurable, Wait for command
 223:.\Generated_Source\PSoC4/Bootloader.c **** *    option of the component customizer)
 224:.\Generated_Source\PSoC4/Bootloader.c **** *
 225:.\Generated_Source\PSoC4/Bootloader.c **** *  - Schedule the bootloadable and reset the device
 226:.\Generated_Source\PSoC4/Bootloader.c **** *
 227:.\Generated_Source\PSoC4/Bootloader.c **** * Parameters:
 228:.\Generated_Source\PSoC4/Bootloader.c **** *  None
 229:.\Generated_Source\PSoC4/Bootloader.c **** *
 230:.\Generated_Source\PSoC4/Bootloader.c **** * Return:
 231:.\Generated_Source\PSoC4/Bootloader.c **** *  This method will never return. It will either load a new application and
 232:.\Generated_Source\PSoC4/Bootloader.c **** *  reset the device or jump directly to the existing application. The CPU is
 233:.\Generated_Source\PSoC4/Bootloader.c **** *  halted, if validation failed when "Bootloader application validation" option
 234:.\Generated_Source\PSoC4/Bootloader.c **** *  is enabled.
 235:.\Generated_Source\PSoC4/Bootloader.c **** *  PSoC 3/PSoC 5: The CPU is halted if Flash initialization fails.
 236:.\Generated_Source\PSoC4/Bootloader.c **** *
 237:.\Generated_Source\PSoC4/Bootloader.c **** * Side Effects:
 238:.\Generated_Source\PSoC4/Bootloader.c **** *  If Bootloader application validation option is enabled and this method
 239:.\Generated_Source\PSoC4/Bootloader.c **** *  determines that the bootloader application itself is corrupt, this method
 240:.\Generated_Source\PSoC4/Bootloader.c **** *  will not return, instead it will simply hang the application.
 241:.\Generated_Source\PSoC4/Bootloader.c **** *
 242:.\Generated_Source\PSoC4/Bootloader.c **** *******************************************************************************/
 243:.\Generated_Source\PSoC4/Bootloader.c **** void Bootloader_Start(void) CYSMALL 
 244:.\Generated_Source\PSoC4/Bootloader.c **** {
 245:.\Generated_Source\PSoC4/Bootloader.c ****     #if(0u != Bootloader_BOOTLOADER_APP_VALIDATION)
 246:.\Generated_Source\PSoC4/Bootloader.c ****         uint8 CYDATA calcedChecksum;
 247:.\Generated_Source\PSoC4/Bootloader.c ****     #endif    /* (0u != Bootloader_BOOTLOADER_APP_VALIDATION) */
 248:.\Generated_Source\PSoC4/Bootloader.c **** 
 249:.\Generated_Source\PSoC4/Bootloader.c ****     #if(!CY_PSOC4)
 250:.\Generated_Source\PSoC4/Bootloader.c ****         #if(0u != Bootloader_FAST_APP_VALIDATION)
 251:.\Generated_Source\PSoC4/Bootloader.c ****             #if !defined(CY_BOOT_VERSION)
 252:.\Generated_Source\PSoC4/Bootloader.c **** 
 253:.\Generated_Source\PSoC4/Bootloader.c ****                 /* Not required starting from cy_boot 4.20 */
 254:.\Generated_Source\PSoC4/Bootloader.c ****                 uint8 CYXDATA Bootloader_flashBuffer[Bootloader_FROW_SIZE];
 255:.\Generated_Source\PSoC4/Bootloader.c **** 
 256:.\Generated_Source\PSoC4/Bootloader.c ****             #endif /* !defined(CY_BOOT_VERSION) */
 257:.\Generated_Source\PSoC4/Bootloader.c ****         #endif  /* (0u != Bootloader_FAST_APP_VALIDATION) */
 258:.\Generated_Source\PSoC4/Bootloader.c ****     #endif  /* (!CY_PSOC4) */
 259:.\Generated_Source\PSoC4/Bootloader.c **** 
 260:.\Generated_Source\PSoC4/Bootloader.c ****     cystatus validApp  = CYRET_BAD_DATA;
 261:.\Generated_Source\PSoC4/Bootloader.c **** 
ARM GAS  C:\Users\PC69\AppData\Local\Temp\cchFQXNr.s 			page 6


 262:.\Generated_Source\PSoC4/Bootloader.c **** 
 263:.\Generated_Source\PSoC4/Bootloader.c ****     /* Identify active bootloadable application */
 264:.\Generated_Source\PSoC4/Bootloader.c ****     #if(0u != Bootloader_DUAL_APP_BOOTLOADER)
 265:.\Generated_Source\PSoC4/Bootloader.c **** 
 266:.\Generated_Source\PSoC4/Bootloader.c ****         /* Assumes no active bootloadable application. Bootloader is active. */
 267:.\Generated_Source\PSoC4/Bootloader.c ****         Bootloader_activeApp = Bootloader_MD_BTLDB_ACTIVE_NONE;
 268:.\Generated_Source\PSoC4/Bootloader.c **** 
 269:.\Generated_Source\PSoC4/Bootloader.c ****         /* Bootloadable # A is active */
 270:.\Generated_Source\PSoC4/Bootloader.c ****         if(Bootloader_GetMetadata(Bootloader_GET_BTLDB_ACTIVE, 0u) == Bootloader_MD_BTLDB_IS_ACTIVE
 271:.\Generated_Source\PSoC4/Bootloader.c ****         {
 272:.\Generated_Source\PSoC4/Bootloader.c ****             /*******************************************************************
 273:.\Generated_Source\PSoC4/Bootloader.c ****             * -----------------------------------------------------------
 274:.\Generated_Source\PSoC4/Bootloader.c ****             * |      | Bootloadable A | Bootloadable B |                |
 275:.\Generated_Source\PSoC4/Bootloader.c ****             * | Case |---------------------------------|     Action     |
 276:.\Generated_Source\PSoC4/Bootloader.c ****             * |      | Active | Valid | Active | Valid |                |
 277:.\Generated_Source\PSoC4/Bootloader.c ****             * |------|--------------------------------------------------|
 278:.\Generated_Source\PSoC4/Bootloader.c ****             * |  9   |    1   |   0   |   0    |   0   | Bootloader     |
 279:.\Generated_Source\PSoC4/Bootloader.c ****             * |  10  |    1   |   0   |   0    |   1   | Bootloadable B |
 280:.\Generated_Source\PSoC4/Bootloader.c ****             * |  11  |    1   |   0   |   1    |   0   | Bootloader     |
 281:.\Generated_Source\PSoC4/Bootloader.c ****             * |  12  |    1   |   0   |   1    |   1   | Bootloadable B |
 282:.\Generated_Source\PSoC4/Bootloader.c ****             * |  13  |    1   |   1   |   0    |   0   | Bootloadable A |
 283:.\Generated_Source\PSoC4/Bootloader.c ****             * |  14  |    1   |   1   |   0    |   1   | Bootloadable A |
 284:.\Generated_Source\PSoC4/Bootloader.c ****             * |  15  |    1   |   1   |   1    |   0   | Bootloadable A |
 285:.\Generated_Source\PSoC4/Bootloader.c ****             * |  16  |    1   |   1   |   1    |   1   | Bootloadable A |
 286:.\Generated_Source\PSoC4/Bootloader.c ****             * -----------------------------------------------------------
 287:.\Generated_Source\PSoC4/Bootloader.c ****             *******************************************************************/
 288:.\Generated_Source\PSoC4/Bootloader.c ****             if (CYRET_SUCCESS == Bootloader_ValidateBootloadable(Bootloader_MD_BTLDB_ACTIVE_0))
 289:.\Generated_Source\PSoC4/Bootloader.c ****             {
 290:.\Generated_Source\PSoC4/Bootloader.c ****                 /* Cases # 13,  14, 15, and 16 */
 291:.\Generated_Source\PSoC4/Bootloader.c ****                 Bootloader_activeApp = Bootloader_MD_BTLDB_ACTIVE_0;
 292:.\Generated_Source\PSoC4/Bootloader.c ****                 validApp = CYRET_SUCCESS;
 293:.\Generated_Source\PSoC4/Bootloader.c ****             }
 294:.\Generated_Source\PSoC4/Bootloader.c ****             else
 295:.\Generated_Source\PSoC4/Bootloader.c ****             {
 296:.\Generated_Source\PSoC4/Bootloader.c ****                 if (CYRET_SUCCESS == Bootloader_ValidateBootloadable(Bootloader_MD_BTLDB_ACTIVE_1))
 297:.\Generated_Source\PSoC4/Bootloader.c ****                 {
 298:.\Generated_Source\PSoC4/Bootloader.c ****                     /* Cases # 10 and 12 */
 299:.\Generated_Source\PSoC4/Bootloader.c ****                     Bootloader_activeApp = Bootloader_MD_BTLDB_ACTIVE_1;
 300:.\Generated_Source\PSoC4/Bootloader.c ****                     validApp = CYRET_SUCCESS;
 301:.\Generated_Source\PSoC4/Bootloader.c ****                 }
 302:.\Generated_Source\PSoC4/Bootloader.c ****             }
 303:.\Generated_Source\PSoC4/Bootloader.c ****         }
 304:.\Generated_Source\PSoC4/Bootloader.c **** 
 305:.\Generated_Source\PSoC4/Bootloader.c ****         /*  Active bootloadable application is not identified */
 306:.\Generated_Source\PSoC4/Bootloader.c ****         if(Bootloader_activeApp == Bootloader_MD_BTLDB_ACTIVE_NONE)
 307:.\Generated_Source\PSoC4/Bootloader.c ****         {
 308:.\Generated_Source\PSoC4/Bootloader.c ****             /*******************************************************************
 309:.\Generated_Source\PSoC4/Bootloader.c ****             * -----------------------------------------------------------
 310:.\Generated_Source\PSoC4/Bootloader.c ****             * |      | Bootloadable A | Bootloadable B |                |
 311:.\Generated_Source\PSoC4/Bootloader.c ****             * | Case |---------------------------------|     Action     |
 312:.\Generated_Source\PSoC4/Bootloader.c ****             * |      | Active | Valid | Active | Valid |                |
 313:.\Generated_Source\PSoC4/Bootloader.c ****             * |------|--------------------------------------------------|
 314:.\Generated_Source\PSoC4/Bootloader.c ****             * |  1   |    0   |   0   |   0    |   0   | Bootloader     |
 315:.\Generated_Source\PSoC4/Bootloader.c ****             * |  2   |    0   |   0   |   0    |   1   | Bootloader     |
 316:.\Generated_Source\PSoC4/Bootloader.c ****             * |  3   |    0   |   0   |   1    |   0   | Bootloader     |
 317:.\Generated_Source\PSoC4/Bootloader.c ****             * |  4   |    0   |   0   |   1    |   1   | Bootloadable B |
 318:.\Generated_Source\PSoC4/Bootloader.c ****             * |  5   |    0   |   1   |   0    |   0   | Bootloader     |
ARM GAS  C:\Users\PC69\AppData\Local\Temp\cchFQXNr.s 			page 7


 319:.\Generated_Source\PSoC4/Bootloader.c ****             * |  6   |    0   |   1   |   0    |   1   | Bootloader     |
 320:.\Generated_Source\PSoC4/Bootloader.c ****             * |  7   |    0   |   1   |   1    |   0   | Bootloadable A |
 321:.\Generated_Source\PSoC4/Bootloader.c ****             * |  8   |    0   |   1   |   1    |   1   | Bootloadable B |
 322:.\Generated_Source\PSoC4/Bootloader.c ****             * -----------------------------------------------------------
 323:.\Generated_Source\PSoC4/Bootloader.c ****             *******************************************************************/
 324:.\Generated_Source\PSoC4/Bootloader.c ****             if (Bootloader_GetMetadata(Bootloader_GET_BTLDB_ACTIVE, 1u) ==
 325:.\Generated_Source\PSoC4/Bootloader.c ****                     Bootloader_MD_BTLDB_IS_ACTIVE)
 326:.\Generated_Source\PSoC4/Bootloader.c ****             {
 327:.\Generated_Source\PSoC4/Bootloader.c ****                 /* Cases # 3, 4, 7, and 8 */
 328:.\Generated_Source\PSoC4/Bootloader.c ****                 if (CYRET_SUCCESS == Bootloader_ValidateBootloadable(Bootloader_MD_BTLDB_ACTIVE_1))
 329:.\Generated_Source\PSoC4/Bootloader.c ****                 {
 330:.\Generated_Source\PSoC4/Bootloader.c ****                     /* Cases # 4 and 8 */
 331:.\Generated_Source\PSoC4/Bootloader.c ****                     Bootloader_activeApp = Bootloader_MD_BTLDB_ACTIVE_1;
 332:.\Generated_Source\PSoC4/Bootloader.c ****                     validApp = CYRET_SUCCESS;
 333:.\Generated_Source\PSoC4/Bootloader.c ****                 }
 334:.\Generated_Source\PSoC4/Bootloader.c ****                 else
 335:.\Generated_Source\PSoC4/Bootloader.c ****                 {
 336:.\Generated_Source\PSoC4/Bootloader.c ****                     if (CYRET_SUCCESS == Bootloader_ValidateBootloadable(Bootloader_MD_BTLDB_ACTIVE
 337:.\Generated_Source\PSoC4/Bootloader.c ****                     {
 338:.\Generated_Source\PSoC4/Bootloader.c ****                         /* Cases # 7 */
 339:.\Generated_Source\PSoC4/Bootloader.c ****                         Bootloader_activeApp = Bootloader_MD_BTLDB_ACTIVE_0;
 340:.\Generated_Source\PSoC4/Bootloader.c ****                         validApp = CYRET_SUCCESS;
 341:.\Generated_Source\PSoC4/Bootloader.c ****                     }
 342:.\Generated_Source\PSoC4/Bootloader.c ****                 }
 343:.\Generated_Source\PSoC4/Bootloader.c ****             }
 344:.\Generated_Source\PSoC4/Bootloader.c ****         }
 345:.\Generated_Source\PSoC4/Bootloader.c ****     #else
 346:.\Generated_Source\PSoC4/Bootloader.c ****         if (CYRET_SUCCESS == Bootloader_ValidateBootloadable(Bootloader_MD_BTLDB_ACTIVE_0))
 347:.\Generated_Source\PSoC4/Bootloader.c ****         {
 348:.\Generated_Source\PSoC4/Bootloader.c ****             validApp = CYRET_SUCCESS;
 349:.\Generated_Source\PSoC4/Bootloader.c ****         }
 350:.\Generated_Source\PSoC4/Bootloader.c ****     #endif  /* (0u != Bootloader_DUAL_APP_BOOTLOADER) */
 351:.\Generated_Source\PSoC4/Bootloader.c **** 
 352:.\Generated_Source\PSoC4/Bootloader.c **** 
 353:.\Generated_Source\PSoC4/Bootloader.c ****     /* Initialize Flash subsystem for non-PSoC 4 devices */
 354:.\Generated_Source\PSoC4/Bootloader.c ****     #if(!CY_PSOC4)
 355:.\Generated_Source\PSoC4/Bootloader.c ****         #if(0u != Bootloader_FAST_APP_VALIDATION)
 356:.\Generated_Source\PSoC4/Bootloader.c **** 
 357:.\Generated_Source\PSoC4/Bootloader.c ****             if (CYRET_SUCCESS != CySetTemp())
 358:.\Generated_Source\PSoC4/Bootloader.c ****             {
 359:.\Generated_Source\PSoC4/Bootloader.c ****                 CyHalt(0x00u);
 360:.\Generated_Source\PSoC4/Bootloader.c ****             }
 361:.\Generated_Source\PSoC4/Bootloader.c **** 
 362:.\Generated_Source\PSoC4/Bootloader.c ****             #if !defined(CY_BOOT_VERSION)
 363:.\Generated_Source\PSoC4/Bootloader.c **** 
 364:.\Generated_Source\PSoC4/Bootloader.c ****                 /* Not required with cy_boot 4.20 */
 365:.\Generated_Source\PSoC4/Bootloader.c ****                 if (CYRET_SUCCESS != CySetFlashEEBuffer(Bootloader_flashBuffer))
 366:.\Generated_Source\PSoC4/Bootloader.c ****                 {
 367:.\Generated_Source\PSoC4/Bootloader.c ****                     CyHalt(0x00u);
 368:.\Generated_Source\PSoC4/Bootloader.c ****                 }
 369:.\Generated_Source\PSoC4/Bootloader.c **** 
 370:.\Generated_Source\PSoC4/Bootloader.c ****             #endif /* !defined(CY_BOOT_VERSION) */
 371:.\Generated_Source\PSoC4/Bootloader.c ****         #endif  /* (0u != Bootloader_FAST_APP_VALIDATION) */
 372:.\Generated_Source\PSoC4/Bootloader.c ****     #endif  /* (CY_PSOC4) */
 373:.\Generated_Source\PSoC4/Bootloader.c **** 
 374:.\Generated_Source\PSoC4/Bootloader.c **** 
 375:.\Generated_Source\PSoC4/Bootloader.c ****     /***********************************************************************
ARM GAS  C:\Users\PC69\AppData\Local\Temp\cchFQXNr.s 			page 8


 376:.\Generated_Source\PSoC4/Bootloader.c ****     * Bootloader Application Validation
 377:.\Generated_Source\PSoC4/Bootloader.c ****     *
 378:.\Generated_Source\PSoC4/Bootloader.c ****     * Halt the device if:
 379:.\Generated_Source\PSoC4/Bootloader.c ****     *  - A calculated checksum does not match the one stored in the metadata
 380:.\Generated_Source\PSoC4/Bootloader.c ****     *     section.
 381:.\Generated_Source\PSoC4/Bootloader.c ****     *  - There is an invalid pointer to the place where the bootloader
 382:.\Generated_Source\PSoC4/Bootloader.c ****     *    application ends.
 383:.\Generated_Source\PSoC4/Bootloader.c ****     *  - Flash subsystem was not initialized correctly
 384:.\Generated_Source\PSoC4/Bootloader.c ****     ***********************************************************************/
 385:.\Generated_Source\PSoC4/Bootloader.c ****     #if(0u != Bootloader_BOOTLOADER_APP_VALIDATION)
 386:.\Generated_Source\PSoC4/Bootloader.c **** 
 387:.\Generated_Source\PSoC4/Bootloader.c ****         /* Calculate Bootloader application checksum */
 388:.\Generated_Source\PSoC4/Bootloader.c ****         calcedChecksum = Bootloader_Calc8BitSum(CY_FLASH_BASE,
 389:.\Generated_Source\PSoC4/Bootloader.c ****                 Bootloader_MD_BTLDR_ADDR_PTR,
 390:.\Generated_Source\PSoC4/Bootloader.c ****                 *Bootloader_SizeBytesAccess - Bootloader_MD_BTLDR_ADDR_PTR);
 391:.\Generated_Source\PSoC4/Bootloader.c **** 
 392:.\Generated_Source\PSoC4/Bootloader.c ****         /* we included checksum, so remove it */
 393:.\Generated_Source\PSoC4/Bootloader.c ****         calcedChecksum -= *Bootloader_ChecksumAccess;
 394:.\Generated_Source\PSoC4/Bootloader.c ****         calcedChecksum = ( uint8 )1u + ( uint8 )(~calcedChecksum);
 395:.\Generated_Source\PSoC4/Bootloader.c **** 
 396:.\Generated_Source\PSoC4/Bootloader.c ****         /* Checksum and pointer to bootloader verification */
 397:.\Generated_Source\PSoC4/Bootloader.c ****         if((calcedChecksum != *Bootloader_ChecksumAccess) ||
 398:.\Generated_Source\PSoC4/Bootloader.c ****            (0u == *Bootloader_SizeBytesAccess))
 399:.\Generated_Source\PSoC4/Bootloader.c ****         {
 400:.\Generated_Source\PSoC4/Bootloader.c ****             CyHalt(0x00u);
 401:.\Generated_Source\PSoC4/Bootloader.c ****         }
 402:.\Generated_Source\PSoC4/Bootloader.c **** 
 403:.\Generated_Source\PSoC4/Bootloader.c ****     #endif  /* (0u != Bootloader_BOOTLOADER_APP_VALIDATION) */
 404:.\Generated_Source\PSoC4/Bootloader.c **** 
 405:.\Generated_Source\PSoC4/Bootloader.c **** 
 406:.\Generated_Source\PSoC4/Bootloader.c ****     /***********************************************************************
 407:.\Generated_Source\PSoC4/Bootloader.c ****     * If the active bootloadable application is invalid or a bootloader
 408:.\Generated_Source\PSoC4/Bootloader.c ****     * application is scheduled - do the following:
 409:.\Generated_Source\PSoC4/Bootloader.c ****     *  - schedule the bootloader application to be run after software reset
 410:.\Generated_Source\PSoC4/Bootloader.c ****     *  - Go to the communication subroutine. The HostLink() will wait for
 411:.\Generated_Source\PSoC4/Bootloader.c ****     *    the commands forever.
 412:.\Generated_Source\PSoC4/Bootloader.c ****     ***********************************************************************/
 413:.\Generated_Source\PSoC4/Bootloader.c ****     if ((Bootloader_GET_RUN_TYPE == Bootloader_START_BTLDR) ||
 414:.\Generated_Source\PSoC4/Bootloader.c ****         (CYRET_SUCCESS != validApp))
 415:.\Generated_Source\PSoC4/Bootloader.c ****     {
 416:.\Generated_Source\PSoC4/Bootloader.c ****         Bootloader_SET_RUN_TYPE(0u);
 417:.\Generated_Source\PSoC4/Bootloader.c **** 
 418:.\Generated_Source\PSoC4/Bootloader.c ****         Bootloader_HostLink(Bootloader_WAIT_FOR_COMMAND_FOREVER);
 419:.\Generated_Source\PSoC4/Bootloader.c ****     }
 420:.\Generated_Source\PSoC4/Bootloader.c **** 
 421:.\Generated_Source\PSoC4/Bootloader.c **** 
 422:.\Generated_Source\PSoC4/Bootloader.c ****     /* Go to communication subroutine. Will wait for commands for specifed time */
 423:.\Generated_Source\PSoC4/Bootloader.c ****     #if(0u != Bootloader_WAIT_FOR_COMMAND)
 424:.\Generated_Source\PSoC4/Bootloader.c **** 
 425:.\Generated_Source\PSoC4/Bootloader.c ****         /* Timeout is in 100s of milliseconds */
 426:.\Generated_Source\PSoC4/Bootloader.c ****         Bootloader_HostLink(Bootloader_WAIT_FOR_COMMAND_TIME);
 427:.\Generated_Source\PSoC4/Bootloader.c **** 
 428:.\Generated_Source\PSoC4/Bootloader.c ****     #endif  /* (0u != Bootloader_WAIT_FOR_COMMAND) */
 429:.\Generated_Source\PSoC4/Bootloader.c **** 
 430:.\Generated_Source\PSoC4/Bootloader.c **** 
 431:.\Generated_Source\PSoC4/Bootloader.c ****     /* Schedule bootloadable application and perform software reset */
 432:.\Generated_Source\PSoC4/Bootloader.c ****     Bootloader_LaunchApplication();
ARM GAS  C:\Users\PC69\AppData\Local\Temp\cchFQXNr.s 			page 9


 433:.\Generated_Source\PSoC4/Bootloader.c **** }
 434:.\Generated_Source\PSoC4/Bootloader.c **** 
 435:.\Generated_Source\PSoC4/Bootloader.c **** 
 436:.\Generated_Source\PSoC4/Bootloader.c **** /*******************************************************************************
 437:.\Generated_Source\PSoC4/Bootloader.c **** * Function Name: Bootloader_LaunchApplication
 438:.\Generated_Source\PSoC4/Bootloader.c **** ********************************************************************************
 439:.\Generated_Source\PSoC4/Bootloader.c **** *
 440:.\Generated_Source\PSoC4/Bootloader.c **** * Summary:
 441:.\Generated_Source\PSoC4/Bootloader.c **** *  Schedules bootloadable application and resets device
 442:.\Generated_Source\PSoC4/Bootloader.c **** *
 443:.\Generated_Source\PSoC4/Bootloader.c **** * Parameters:
 444:.\Generated_Source\PSoC4/Bootloader.c **** *  None
 445:.\Generated_Source\PSoC4/Bootloader.c **** *
 446:.\Generated_Source\PSoC4/Bootloader.c **** * Returns:
 447:.\Generated_Source\PSoC4/Bootloader.c **** *  This method will never return.
 448:.\Generated_Source\PSoC4/Bootloader.c **** *
 449:.\Generated_Source\PSoC4/Bootloader.c **** *******************************************************************************/
 450:.\Generated_Source\PSoC4/Bootloader.c **** static void Bootloader_LaunchApplication(void) CYSMALL 
 451:.\Generated_Source\PSoC4/Bootloader.c **** {
 452:.\Generated_Source\PSoC4/Bootloader.c ****     /* Schedule Bootloadable to start after reset */
 453:.\Generated_Source\PSoC4/Bootloader.c ****     Bootloader_SET_RUN_TYPE(Bootloader_START_APP);
 454:.\Generated_Source\PSoC4/Bootloader.c **** 
 455:.\Generated_Source\PSoC4/Bootloader.c ****     CySoftwareReset();
 456:.\Generated_Source\PSoC4/Bootloader.c **** }
 457:.\Generated_Source\PSoC4/Bootloader.c **** 
 458:.\Generated_Source\PSoC4/Bootloader.c **** 
 459:.\Generated_Source\PSoC4/Bootloader.c **** /*******************************************************************************
 460:.\Generated_Source\PSoC4/Bootloader.c **** * Function Name: Bootloader_Exit
 461:.\Generated_Source\PSoC4/Bootloader.c **** ********************************************************************************
 462:.\Generated_Source\PSoC4/Bootloader.c **** *
 463:.\Generated_Source\PSoC4/Bootloader.c **** * Summary:
 464:.\Generated_Source\PSoC4/Bootloader.c **** *  Schedules the specified application and performs software reset to launch
 465:.\Generated_Source\PSoC4/Bootloader.c **** *  a specified application.
 466:.\Generated_Source\PSoC4/Bootloader.c **** *
 467:.\Generated_Source\PSoC4/Bootloader.c **** *  If the specified application is not valid, the Bootloader (the result of the
 468:.\Generated_Source\PSoC4/Bootloader.c **** *  ValidateBootloadable() function execution returns other than CYRET_SUCCESS,
 469:.\Generated_Source\PSoC4/Bootloader.c **** *  the bootloader application is launched.
 470:.\Generated_Source\PSoC4/Bootloader.c **** *
 471:.\Generated_Source\PSoC4/Bootloader.c **** * Parameters:
 472:.\Generated_Source\PSoC4/Bootloader.c **** *  appId: application to be started:
 473:.\Generated_Source\PSoC4/Bootloader.c **** *  Bootloader_EXIT_TO_BTLDR   - Bootloader application will be started on
 474:.\Generated_Source\PSoC4/Bootloader.c **** *                                     software reset.
 475:.\Generated_Source\PSoC4/Bootloader.c **** *  Bootloader_EXIT_TO_BTLDB,
 476:.\Generated_Source\PSoC4/Bootloader.c **** *  Bootloader_EXIT_TO_BTLDB_1 - Bootloadable application # 1 will be
 477:.\Generated_Source\PSoC4/Bootloader.c **** *                                     started on software reset.
 478:.\Generated_Source\PSoC4/Bootloader.c **** *  Bootloader_EXIT_TO_BTLDB_2 - Bootloadable application # 2 will be
 479:.\Generated_Source\PSoC4/Bootloader.c **** *                                     started on software reset. Available only
 480:.\Generated_Source\PSoC4/Bootloader.c **** *                                     if Multi-Application option is enabled in
 481:.\Generated_Source\PSoC4/Bootloader.c **** *                                     the component customizer.
 482:.\Generated_Source\PSoC4/Bootloader.c **** * Returns:
 483:.\Generated_Source\PSoC4/Bootloader.c **** *  This function never returns.
 484:.\Generated_Source\PSoC4/Bootloader.c **** *
 485:.\Generated_Source\PSoC4/Bootloader.c **** *******************************************************************************/
 486:.\Generated_Source\PSoC4/Bootloader.c **** void Bootloader_Exit(uint8 appId) CYSMALL 
 487:.\Generated_Source\PSoC4/Bootloader.c **** {
 488:.\Generated_Source\PSoC4/Bootloader.c ****     if(Bootloader_EXIT_TO_BTLDR == appId)
 489:.\Generated_Source\PSoC4/Bootloader.c ****     {
ARM GAS  C:\Users\PC69\AppData\Local\Temp\cchFQXNr.s 			page 10


 490:.\Generated_Source\PSoC4/Bootloader.c ****         Bootloader_SET_RUN_TYPE(0x0u);
 491:.\Generated_Source\PSoC4/Bootloader.c ****     }
 492:.\Generated_Source\PSoC4/Bootloader.c ****     else
 493:.\Generated_Source\PSoC4/Bootloader.c ****     {
 494:.\Generated_Source\PSoC4/Bootloader.c ****         if(CYRET_SUCCESS == Bootloader_ValidateBootloadable(appId))
 495:.\Generated_Source\PSoC4/Bootloader.c ****         {
 496:.\Generated_Source\PSoC4/Bootloader.c ****             /* Set active application in metadata */
 497:.\Generated_Source\PSoC4/Bootloader.c ****             uint8 CYDATA idx;
 498:.\Generated_Source\PSoC4/Bootloader.c ****             for(idx = 0u; idx < Bootloader_MAX_NUM_OF_BTLDB; idx++)
 499:.\Generated_Source\PSoC4/Bootloader.c ****             {
 500:.\Generated_Source\PSoC4/Bootloader.c ****                 Bootloader_SetFlashByte((uint32) Bootloader_MD_BTLDB_ACTIVE_OFFSET(idx),
 501:.\Generated_Source\PSoC4/Bootloader.c ****                                               (uint8 )(idx == appId));
 502:.\Generated_Source\PSoC4/Bootloader.c ****             }
 503:.\Generated_Source\PSoC4/Bootloader.c **** 
 504:.\Generated_Source\PSoC4/Bootloader.c ****         #if(0u != Bootloader_DUAL_APP_BOOTLOADER)
 505:.\Generated_Source\PSoC4/Bootloader.c ****             Bootloader_activeApp = appId;
 506:.\Generated_Source\PSoC4/Bootloader.c ****         #endif /* (0u != Bootloader_DUAL_APP_BOOTLOADER) */
 507:.\Generated_Source\PSoC4/Bootloader.c **** 
 508:.\Generated_Source\PSoC4/Bootloader.c ****             Bootloader_SET_RUN_TYPE(Bootloader_SCHEDULE_BTLDB);
 509:.\Generated_Source\PSoC4/Bootloader.c ****         }
 510:.\Generated_Source\PSoC4/Bootloader.c ****         else
 511:.\Generated_Source\PSoC4/Bootloader.c ****         {
 512:.\Generated_Source\PSoC4/Bootloader.c ****             Bootloader_SET_RUN_TYPE(0u);
 513:.\Generated_Source\PSoC4/Bootloader.c ****         }
 514:.\Generated_Source\PSoC4/Bootloader.c ****     }
 515:.\Generated_Source\PSoC4/Bootloader.c **** 
 516:.\Generated_Source\PSoC4/Bootloader.c ****     CySoftwareReset();
 517:.\Generated_Source\PSoC4/Bootloader.c **** }
 518:.\Generated_Source\PSoC4/Bootloader.c **** 
 519:.\Generated_Source\PSoC4/Bootloader.c **** 
 520:.\Generated_Source\PSoC4/Bootloader.c **** /*******************************************************************************
 521:.\Generated_Source\PSoC4/Bootloader.c **** * Function Name: CyBtldr_CheckLaunch
 522:.\Generated_Source\PSoC4/Bootloader.c **** ********************************************************************************
 523:.\Generated_Source\PSoC4/Bootloader.c **** *
 524:.\Generated_Source\PSoC4/Bootloader.c **** * Summary:
 525:.\Generated_Source\PSoC4/Bootloader.c **** *  This routine checks if the bootloader or the bootloadable application has to
 526:.\Generated_Source\PSoC4/Bootloader.c **** *  be run.  If the application has to be run, it will start executing.
 527:.\Generated_Source\PSoC4/Bootloader.c **** *  If the bootloader is to be run, it will return, so the bootloader can
 528:.\Generated_Source\PSoC4/Bootloader.c **** *  continue starting up.
 529:.\Generated_Source\PSoC4/Bootloader.c **** *
 530:.\Generated_Source\PSoC4/Bootloader.c **** * Parameters:
 531:.\Generated_Source\PSoC4/Bootloader.c **** *  None
 532:.\Generated_Source\PSoC4/Bootloader.c **** *
 533:.\Generated_Source\PSoC4/Bootloader.c **** * Returns:
 534:.\Generated_Source\PSoC4/Bootloader.c **** *  It will not return if it determines that the bootloadable application should
 535:.\Generated_Source\PSoC4/Bootloader.c **** *  be run.
 536:.\Generated_Source\PSoC4/Bootloader.c **** *
 537:.\Generated_Source\PSoC4/Bootloader.c **** *******************************************************************************/
 538:.\Generated_Source\PSoC4/Bootloader.c **** void CyBtldr_CheckLaunch(void) CYSMALL 
 539:.\Generated_Source\PSoC4/Bootloader.c **** {
 540:.\Generated_Source\PSoC4/Bootloader.c **** 
 541:.\Generated_Source\PSoC4/Bootloader.c **** #if(CY_PSOC4)
 542:.\Generated_Source\PSoC4/Bootloader.c **** 
 543:.\Generated_Source\PSoC4/Bootloader.c ****     /*******************************************************************************
 544:.\Generated_Source\PSoC4/Bootloader.c ****     * Set cyBtldrRunType to zero in case of non-software reset occurred. This means
 545:.\Generated_Source\PSoC4/Bootloader.c ****     * that bootloader application is scheduled - that is initial clean state. The
 546:.\Generated_Source\PSoC4/Bootloader.c ****     * value of cyBtldrRunType is valid only in case of software reset.
ARM GAS  C:\Users\PC69\AppData\Local\Temp\cchFQXNr.s 			page 11


 547:.\Generated_Source\PSoC4/Bootloader.c ****     *******************************************************************************/
 548:.\Generated_Source\PSoC4/Bootloader.c ****     if (0u == (Bootloader_RES_CAUSE_REG & Bootloader_RES_CAUSE_RESET_SOFT))
 549:.\Generated_Source\PSoC4/Bootloader.c ****     {
 550:.\Generated_Source\PSoC4/Bootloader.c ****         cyBtldrRunType = 0u;
 551:.\Generated_Source\PSoC4/Bootloader.c ****     }
 552:.\Generated_Source\PSoC4/Bootloader.c **** 
 553:.\Generated_Source\PSoC4/Bootloader.c **** #endif /* (CY_PSOC4) */
 554:.\Generated_Source\PSoC4/Bootloader.c **** 
 555:.\Generated_Source\PSoC4/Bootloader.c **** 
 556:.\Generated_Source\PSoC4/Bootloader.c ****     if (Bootloader_GET_RUN_TYPE == Bootloader_START_APP)
 557:.\Generated_Source\PSoC4/Bootloader.c ****     {
 558:.\Generated_Source\PSoC4/Bootloader.c ****         Bootloader_SET_RUN_TYPE(0u);
 559:.\Generated_Source\PSoC4/Bootloader.c **** 
 560:.\Generated_Source\PSoC4/Bootloader.c ****         /*******************************************************************************
 561:.\Generated_Source\PSoC4/Bootloader.c ****         * Indicates that we have told ourselves to jump to the application since we have
 562:.\Generated_Source\PSoC4/Bootloader.c ****         * already told ourselves to jump, we do not do any expensive verification of the
 563:.\Generated_Source\PSoC4/Bootloader.c ****         * application. We just check to make sure that the value at CY_APP_ADDR_ADDRESS
 564:.\Generated_Source\PSoC4/Bootloader.c ****         * is something other than 0.
 565:.\Generated_Source\PSoC4/Bootloader.c ****         *******************************************************************************/
 566:.\Generated_Source\PSoC4/Bootloader.c ****         if(0u != Bootloader_GetMetadata(Bootloader_GET_BTLDB_ADDR, Bootloader_activeApp))
 567:.\Generated_Source\PSoC4/Bootloader.c ****         {
 568:.\Generated_Source\PSoC4/Bootloader.c ****             /* Never return from this method */
 569:.\Generated_Source\PSoC4/Bootloader.c ****             Bootloader_LaunchBootloadable(Bootloader_GetMetadata(Bootloader_GET_BTLDB_ADDR,
 570:.\Generated_Source\PSoC4/Bootloader.c ****                                                                              Bootloader_activeApp))
 571:.\Generated_Source\PSoC4/Bootloader.c ****         }
 572:.\Generated_Source\PSoC4/Bootloader.c ****     }
 573:.\Generated_Source\PSoC4/Bootloader.c **** }
 574:.\Generated_Source\PSoC4/Bootloader.c **** 
 575:.\Generated_Source\PSoC4/Bootloader.c **** 
 576:.\Generated_Source\PSoC4/Bootloader.c **** /* Moves argument appAddr (RO) into PC, moving execution to appAddr */
 577:.\Generated_Source\PSoC4/Bootloader.c **** #if defined (__ARMCC_VERSION)
 578:.\Generated_Source\PSoC4/Bootloader.c **** 
 579:.\Generated_Source\PSoC4/Bootloader.c ****     __asm static void Bootloader_LaunchBootloadable(uint32 appAddr)
 580:.\Generated_Source\PSoC4/Bootloader.c ****     {
 581:.\Generated_Source\PSoC4/Bootloader.c ****         BX  R0
 582:.\Generated_Source\PSoC4/Bootloader.c ****         ALIGN
 583:.\Generated_Source\PSoC4/Bootloader.c ****     }
 584:.\Generated_Source\PSoC4/Bootloader.c **** 
 585:.\Generated_Source\PSoC4/Bootloader.c **** #elif defined(__GNUC__)
 586:.\Generated_Source\PSoC4/Bootloader.c **** 
 587:.\Generated_Source\PSoC4/Bootloader.c ****     __attribute__((noinline)) /* Workaround for GCC toolchain bug with inlining */
 588:.\Generated_Source\PSoC4/Bootloader.c ****     __attribute__((naked))
 589:.\Generated_Source\PSoC4/Bootloader.c ****     static void Bootloader_LaunchBootloadable(uint32 appAddr)
 590:.\Generated_Source\PSoC4/Bootloader.c ****     {
  25              		.loc 1 590 0
  26              		.cfi_startproc
  27              	.LVL0:
 591:.\Generated_Source\PSoC4/Bootloader.c ****         __asm volatile("    BX  R0\n");
  28              		.loc 1 591 0
  29              	@ 591 ".\Generated_Source\PSoC4\Bootloader.c" 1
  30 0000 0047     		    BX  R0
  31              	
  32              	@ 0 "" 2
 592:.\Generated_Source\PSoC4/Bootloader.c ****     }
  33              		.loc 1 592 0
  34              		.code	16
  35              		.cfi_endproc
ARM GAS  C:\Users\PC69\AppData\Local\Temp\cchFQXNr.s 			page 12


  36              	.LFE39:
  37              		.size	Bootloader_LaunchBootloadable, .-Bootloader_LaunchBootloadable
  38              		.section	.text.Bootloader_Calc8BitSum,"ax",%progbits
  39              		.align	1
  40              		.global	Bootloader_Calc8BitSum
  41              		.code	16
  42              		.thumb_func
  43              		.type	Bootloader_Calc8BitSum, %function
  44              	Bootloader_Calc8BitSum:
  45              	.LFB34:
 187:.\Generated_Source\PSoC4/Bootloader.c ****     uint8 CYDATA sum = 0u;
  46              		.loc 1 187 0
  47              		.cfi_startproc
  48              	.LVL1:
  49 0000 70B5     		push	{r4, r5, r6, lr}
  50              		.cfi_def_cfa_offset 16
  51              		.cfi_offset 4, -16
  52              		.cfi_offset 5, -12
  53              		.cfi_offset 6, -8
  54              		.cfi_offset 14, -4
 187:.\Generated_Source\PSoC4/Bootloader.c ****     uint8 CYDATA sum = 0u;
  55              		.loc 1 187 0
  56 0002 051C     		mov	r5, r0
  57 0004 0E1C     		mov	r6, r1
  58 0006 141C     		mov	r4, r2
 193:.\Generated_Source\PSoC4/Bootloader.c ****     #endif  /* (!CY_PSOC4) */
  59              		.loc 1 193 0
  60 0008 0028     		cmp	r0, #0
  61 000a 02D0     		beq	.L3
 193:.\Generated_Source\PSoC4/Bootloader.c ****     #endif  /* (!CY_PSOC4) */
  62              		.loc 1 193 0 is_stmt 0 discriminator 1
  63 000c 0020     		mov	r0, #0
  64              	.LVL2:
  65 000e FFF7FEFF 		bl	CyHalt
  66              	.LVL3:
  67              	.L3:
 187:.\Generated_Source\PSoC4/Bootloader.c ****     uint8 CYDATA sum = 0u;
  68              		.loc 1 187 0 is_stmt 1
  69 0012 0020     		mov	r0, #0
  70              	.LVL4:
  71              	.L4:
 196:.\Generated_Source\PSoC4/Bootloader.c ****     {
  72              		.loc 1 196 0
  73 0014 002C     		cmp	r4, #0
  74 0016 05D0     		beq	.L10
 198:.\Generated_Source\PSoC4/Bootloader.c ****         sum += (*((uint8  *)(baseAddr + start + size)));
  75              		.loc 1 198 0
  76 0018 013C     		sub	r4, r4, #1
  77              	.LVL5:
 199:.\Generated_Source\PSoC4/Bootloader.c ****     }
  78              		.loc 1 199 0
  79 001a AB19     		add	r3, r5, r6
  80 001c 1B5D     		ldrb	r3, [r3, r4]
  81 001e C018     		add	r0, r0, r3
  82              	.LVL6:
  83 0020 C0B2     		uxtb	r0, r0
  84              	.LVL7:
ARM GAS  C:\Users\PC69\AppData\Local\Temp\cchFQXNr.s 			page 13


  85 0022 F7E7     		b	.L4
  86              	.L10:
 203:.\Generated_Source\PSoC4/Bootloader.c **** 
  87              		.loc 1 203 0
  88              		@ sp needed
  89              	.LVL8:
  90              	.LVL9:
  91              	.LVL10:
  92 0024 70BD     		pop	{r4, r5, r6, pc}
  93              		.cfi_endproc
  94              	.LFE34:
  95              		.size	Bootloader_Calc8BitSum, .-Bootloader_Calc8BitSum
  96              		.section	.text.Bootloader_SetFlashByte,"ax",%progbits
  97              		.align	1
  98              		.global	Bootloader_SetFlashByte
  99              		.code	16
 100              		.thumb_func
 101              		.type	Bootloader_SetFlashByte, %function
 102              	Bootloader_SetFlashByte:
 103              	.LFB43:
 593:.\Generated_Source\PSoC4/Bootloader.c **** 
 594:.\Generated_Source\PSoC4/Bootloader.c **** #elif defined (__ICCARM__)
 595:.\Generated_Source\PSoC4/Bootloader.c **** 
 596:.\Generated_Source\PSoC4/Bootloader.c ****     static void Bootloader_LaunchBootloadable(uint32 appAddr)
 597:.\Generated_Source\PSoC4/Bootloader.c ****     {
 598:.\Generated_Source\PSoC4/Bootloader.c ****         __asm volatile("    BX  R0\n");
 599:.\Generated_Source\PSoC4/Bootloader.c ****     }
 600:.\Generated_Source\PSoC4/Bootloader.c **** 
 601:.\Generated_Source\PSoC4/Bootloader.c **** #endif  /* (__ARMCC_VERSION) */
 602:.\Generated_Source\PSoC4/Bootloader.c **** 
 603:.\Generated_Source\PSoC4/Bootloader.c **** 
 604:.\Generated_Source\PSoC4/Bootloader.c **** /*******************************************************************************
 605:.\Generated_Source\PSoC4/Bootloader.c **** * Function Name: Bootloader_ValidateBootloadable
 606:.\Generated_Source\PSoC4/Bootloader.c **** ********************************************************************************
 607:.\Generated_Source\PSoC4/Bootloader.c **** * Summary:
 608:.\Generated_Source\PSoC4/Bootloader.c **** *  Performs the bootloadable application validation by calculating the
 609:.\Generated_Source\PSoC4/Bootloader.c **** *  application image checksum and comparing it with the checksum value stored
 610:.\Generated_Source\PSoC4/Bootloader.c **** *  in the Bootloadable Application Checksum field of the metadata section.
 611:.\Generated_Source\PSoC4/Bootloader.c **** *
 612:.\Generated_Source\PSoC4/Bootloader.c **** *  If the Fast bootloadable application validation option is enabled in the
 613:.\Generated_Source\PSoC4/Bootloader.c **** *  component customizer and bootloadable application successfully passes
 614:.\Generated_Source\PSoC4/Bootloader.c **** *  validation, the Bootloadable Application Verification Status field of the
 615:.\Generated_Source\PSoC4/Bootloader.c **** *  metadata section is updated. Refer to the Metadata Layout section for the
 616:.\Generated_Source\PSoC4/Bootloader.c **** *  details.
 617:.\Generated_Source\PSoC4/Bootloader.c **** *
 618:.\Generated_Source\PSoC4/Bootloader.c **** *  If the Fast bootloadable application validation option is enabled and
 619:.\Generated_Source\PSoC4/Bootloader.c **** *  Bootloadable Application Verification Status field of the metadata section
 620:.\Generated_Source\PSoC4/Bootloader.c **** *  claims that bootloadable application is valid, the function returns
 621:.\Generated_Source\PSoC4/Bootloader.c **** *  CYRET_SUCCESS without further checksum calculation.
 622:.\Generated_Source\PSoC4/Bootloader.c **** *
 623:.\Generated_Source\PSoC4/Bootloader.c **** * Parameters:
 624:.\Generated_Source\PSoC4/Bootloader.c **** *  appId:
 625:.\Generated_Source\PSoC4/Bootloader.c **** *  The number of the bootloadable application should be 0 for the normal
 626:.\Generated_Source\PSoC4/Bootloader.c **** *  bootloader and 0 or 1 for the Multi-Application bootloader.
 627:.\Generated_Source\PSoC4/Bootloader.c **** *
 628:.\Generated_Source\PSoC4/Bootloader.c **** * Returns:
 629:.\Generated_Source\PSoC4/Bootloader.c **** *  Returns CYRET_SUCCESS if the specified bootloadable application is valid.
ARM GAS  C:\Users\PC69\AppData\Local\Temp\cchFQXNr.s 			page 14


 630:.\Generated_Source\PSoC4/Bootloader.c **** *
 631:.\Generated_Source\PSoC4/Bootloader.c **** *******************************************************************************/
 632:.\Generated_Source\PSoC4/Bootloader.c **** cystatus Bootloader_ValidateBootloadable(uint8 appId) CYSMALL \
 633:.\Generated_Source\PSoC4/Bootloader.c **** 
 634:.\Generated_Source\PSoC4/Bootloader.c ****     {
 635:.\Generated_Source\PSoC4/Bootloader.c ****         uint32 CYDATA idx;
 636:.\Generated_Source\PSoC4/Bootloader.c **** 
 637:.\Generated_Source\PSoC4/Bootloader.c ****         uint32 CYDATA end   = Bootloader_FIRST_APP_BYTE(appId) +
 638:.\Generated_Source\PSoC4/Bootloader.c ****                                 Bootloader_GetMetadata(Bootloader_GET_BTLDB_LENGTH,
 639:.\Generated_Source\PSoC4/Bootloader.c ****                                                        appId);
 640:.\Generated_Source\PSoC4/Bootloader.c **** 
 641:.\Generated_Source\PSoC4/Bootloader.c ****         CYBIT         valid = 0u; /* Assume bad flash image */
 642:.\Generated_Source\PSoC4/Bootloader.c ****         uint8  CYDATA calcedChecksum = 0u;
 643:.\Generated_Source\PSoC4/Bootloader.c **** 
 644:.\Generated_Source\PSoC4/Bootloader.c **** 
 645:.\Generated_Source\PSoC4/Bootloader.c ****         #if(0u != Bootloader_DUAL_APP_BOOTLOADER)
 646:.\Generated_Source\PSoC4/Bootloader.c **** 
 647:.\Generated_Source\PSoC4/Bootloader.c ****             if(appId > 1u)
 648:.\Generated_Source\PSoC4/Bootloader.c ****             {
 649:.\Generated_Source\PSoC4/Bootloader.c ****                 return(CYRET_BAD_DATA);
 650:.\Generated_Source\PSoC4/Bootloader.c ****             }
 651:.\Generated_Source\PSoC4/Bootloader.c **** 
 652:.\Generated_Source\PSoC4/Bootloader.c ****         #endif  /* (0u != Bootloader_DUAL_APP_BOOTLOADER) */
 653:.\Generated_Source\PSoC4/Bootloader.c **** 
 654:.\Generated_Source\PSoC4/Bootloader.c **** 
 655:.\Generated_Source\PSoC4/Bootloader.c ****         #if(0u != Bootloader_FAST_APP_VALIDATION)
 656:.\Generated_Source\PSoC4/Bootloader.c **** 
 657:.\Generated_Source\PSoC4/Bootloader.c **** 
 658:.\Generated_Source\PSoC4/Bootloader.c ****             if(Bootloader_GetMetadata(Bootloader_GET_BTLDB_STATUS, appId) ==
 659:.\Generated_Source\PSoC4/Bootloader.c ****                Bootloader_MD_BTLDB_IS_VERIFIED)
 660:.\Generated_Source\PSoC4/Bootloader.c ****             {
 661:.\Generated_Source\PSoC4/Bootloader.c ****                 return(CYRET_SUCCESS);
 662:.\Generated_Source\PSoC4/Bootloader.c ****             }
 663:.\Generated_Source\PSoC4/Bootloader.c **** 
 664:.\Generated_Source\PSoC4/Bootloader.c ****         #endif  /* (0u != Bootloader_FAST_APP_VALIDATION) */
 665:.\Generated_Source\PSoC4/Bootloader.c **** 
 666:.\Generated_Source\PSoC4/Bootloader.c **** 
 667:.\Generated_Source\PSoC4/Bootloader.c ****         /* Calculate checksum of bootloadable image */
 668:.\Generated_Source\PSoC4/Bootloader.c ****         for(idx = Bootloader_FIRST_APP_BYTE(appId); idx < end; ++idx)
 669:.\Generated_Source\PSoC4/Bootloader.c ****         {
 670:.\Generated_Source\PSoC4/Bootloader.c ****             uint8 CYDATA curByte = Bootloader_GET_CODE_BYTE(idx);
 671:.\Generated_Source\PSoC4/Bootloader.c **** 
 672:.\Generated_Source\PSoC4/Bootloader.c ****             if((curByte != 0u) && (curByte != 0xFFu))
 673:.\Generated_Source\PSoC4/Bootloader.c ****             {
 674:.\Generated_Source\PSoC4/Bootloader.c ****                 valid = 1u;
 675:.\Generated_Source\PSoC4/Bootloader.c ****             }
 676:.\Generated_Source\PSoC4/Bootloader.c **** 
 677:.\Generated_Source\PSoC4/Bootloader.c ****             calcedChecksum += curByte;
 678:.\Generated_Source\PSoC4/Bootloader.c ****         }
 679:.\Generated_Source\PSoC4/Bootloader.c **** 
 680:.\Generated_Source\PSoC4/Bootloader.c **** 
 681:.\Generated_Source\PSoC4/Bootloader.c ****         /***************************************************************************
 682:.\Generated_Source\PSoC4/Bootloader.c ****         * We do not compute checksum over the meta data section, so no need to
 683:.\Generated_Source\PSoC4/Bootloader.c ****         * subtract off App Verified or App Active information here like we do when
 684:.\Generated_Source\PSoC4/Bootloader.c ****         * verifying a row.
 685:.\Generated_Source\PSoC4/Bootloader.c ****         ***************************************************************************/
 686:.\Generated_Source\PSoC4/Bootloader.c **** 
ARM GAS  C:\Users\PC69\AppData\Local\Temp\cchFQXNr.s 			page 15


 687:.\Generated_Source\PSoC4/Bootloader.c **** 
 688:.\Generated_Source\PSoC4/Bootloader.c ****         #if((!CY_PSOC4) && (CYDEV_ECC_ENABLE == 0u))
 689:.\Generated_Source\PSoC4/Bootloader.c **** 
 690:.\Generated_Source\PSoC4/Bootloader.c ****             /* Add ECC data to checksum */
 691:.\Generated_Source\PSoC4/Bootloader.c ****             idx = ((Bootloader_FIRST_APP_BYTE(appId)) >> 3u);
 692:.\Generated_Source\PSoC4/Bootloader.c **** 
 693:.\Generated_Source\PSoC4/Bootloader.c ****             /* Flash may run into meta data, so ECC does not use full row */
 694:.\Generated_Source\PSoC4/Bootloader.c ****             end = (end == (CY_FLASH_SIZE - Bootloader_MD_SIZEOF))
 695:.\Generated_Source\PSoC4/Bootloader.c ****                 ? (CY_FLASH_SIZE >> 3u)
 696:.\Generated_Source\PSoC4/Bootloader.c ****                 : (end >> 3u);
 697:.\Generated_Source\PSoC4/Bootloader.c **** 
 698:.\Generated_Source\PSoC4/Bootloader.c ****             for (; idx < end; ++idx)
 699:.\Generated_Source\PSoC4/Bootloader.c ****             {
 700:.\Generated_Source\PSoC4/Bootloader.c ****                 calcedChecksum += CY_GET_XTND_REG8((volatile uint8 *)(CYDEV_ECC_BASE + idx));
 701:.\Generated_Source\PSoC4/Bootloader.c ****             }
 702:.\Generated_Source\PSoC4/Bootloader.c **** 
 703:.\Generated_Source\PSoC4/Bootloader.c ****         #endif  /* ((!CY_PSOC4) && (CYDEV_ECC_ENABLE == 0u)) */
 704:.\Generated_Source\PSoC4/Bootloader.c **** 
 705:.\Generated_Source\PSoC4/Bootloader.c **** 
 706:.\Generated_Source\PSoC4/Bootloader.c ****         calcedChecksum = ( uint8 )1u + ( uint8 )(~calcedChecksum);
 707:.\Generated_Source\PSoC4/Bootloader.c **** 
 708:.\Generated_Source\PSoC4/Bootloader.c **** 
 709:.\Generated_Source\PSoC4/Bootloader.c ****         if((calcedChecksum != Bootloader_GetMetadata(Bootloader_GET_BTLDB_CHECKSUM, appId)) ||
 710:.\Generated_Source\PSoC4/Bootloader.c ****            (0u == valid))
 711:.\Generated_Source\PSoC4/Bootloader.c ****         {
 712:.\Generated_Source\PSoC4/Bootloader.c ****             return(CYRET_BAD_DATA);
 713:.\Generated_Source\PSoC4/Bootloader.c ****         }
 714:.\Generated_Source\PSoC4/Bootloader.c **** 
 715:.\Generated_Source\PSoC4/Bootloader.c **** 
 716:.\Generated_Source\PSoC4/Bootloader.c ****         #if(0u != Bootloader_FAST_APP_VALIDATION)
 717:.\Generated_Source\PSoC4/Bootloader.c ****             Bootloader_SetFlashByte((uint32) Bootloader_MD_BTLDB_VERIFIED_OFFSET(appId),
 718:.\Generated_Source\PSoC4/Bootloader.c ****                                           Bootloader_MD_BTLDB_IS_VERIFIED);
 719:.\Generated_Source\PSoC4/Bootloader.c ****         #endif  /* (0u != Bootloader_FAST_APP_VALIDATION) */
 720:.\Generated_Source\PSoC4/Bootloader.c **** 
 721:.\Generated_Source\PSoC4/Bootloader.c **** 
 722:.\Generated_Source\PSoC4/Bootloader.c ****         return(CYRET_SUCCESS);
 723:.\Generated_Source\PSoC4/Bootloader.c **** }
 724:.\Generated_Source\PSoC4/Bootloader.c **** 
 725:.\Generated_Source\PSoC4/Bootloader.c **** 
 726:.\Generated_Source\PSoC4/Bootloader.c **** /*******************************************************************************
 727:.\Generated_Source\PSoC4/Bootloader.c **** * Function Name: Bootloader_HostLink
 728:.\Generated_Source\PSoC4/Bootloader.c **** ********************************************************************************
 729:.\Generated_Source\PSoC4/Bootloader.c **** *
 730:.\Generated_Source\PSoC4/Bootloader.c **** * Summary:
 731:.\Generated_Source\PSoC4/Bootloader.c **** *  Causes the bootloader to attempt to read data being transmitted by the
 732:.\Generated_Source\PSoC4/Bootloader.c **** *  host application.  If data is sent from the host, this establishes the
 733:.\Generated_Source\PSoC4/Bootloader.c **** *  communication interface to process all requests.
 734:.\Generated_Source\PSoC4/Bootloader.c **** *
 735:.\Generated_Source\PSoC4/Bootloader.c **** * Parameters:
 736:.\Generated_Source\PSoC4/Bootloader.c **** *  timeOut:
 737:.\Generated_Source\PSoC4/Bootloader.c **** *   The amount of time to listen for data before giving up. Timeout is
 738:.\Generated_Source\PSoC4/Bootloader.c **** *   measured in 10s of ms.  Use 0 for an infinite wait.
 739:.\Generated_Source\PSoC4/Bootloader.c **** *
 740:.\Generated_Source\PSoC4/Bootloader.c **** * Return:
 741:.\Generated_Source\PSoC4/Bootloader.c **** *   None
 742:.\Generated_Source\PSoC4/Bootloader.c **** *
 743:.\Generated_Source\PSoC4/Bootloader.c **** *******************************************************************************/
ARM GAS  C:\Users\PC69\AppData\Local\Temp\cchFQXNr.s 			page 16


 744:.\Generated_Source\PSoC4/Bootloader.c **** static void Bootloader_HostLink(uint8 timeOut) 
 745:.\Generated_Source\PSoC4/Bootloader.c **** {
 746:.\Generated_Source\PSoC4/Bootloader.c ****     uint16    CYDATA numberRead;
 747:.\Generated_Source\PSoC4/Bootloader.c ****     uint16    CYDATA rspSize;
 748:.\Generated_Source\PSoC4/Bootloader.c ****     uint8     CYDATA ackCode;
 749:.\Generated_Source\PSoC4/Bootloader.c ****     uint16    CYDATA pktChecksum;
 750:.\Generated_Source\PSoC4/Bootloader.c ****     cystatus  CYDATA readStat;
 751:.\Generated_Source\PSoC4/Bootloader.c ****     uint16    CYDATA pktSize    = 0u;
 752:.\Generated_Source\PSoC4/Bootloader.c ****     uint16    CYDATA dataOffset = 0u;
 753:.\Generated_Source\PSoC4/Bootloader.c ****     uint8     CYDATA timeOutCnt = 10u;
 754:.\Generated_Source\PSoC4/Bootloader.c **** 
 755:.\Generated_Source\PSoC4/Bootloader.c ****     #if(0u != Bootloader_FAST_APP_VALIDATION)
 756:.\Generated_Source\PSoC4/Bootloader.c ****         uint8 CYDATA clearedMetaData = 0u;
 757:.\Generated_Source\PSoC4/Bootloader.c ****     #endif  /* (0u != Bootloader_FAST_APP_VALIDATION) */
 758:.\Generated_Source\PSoC4/Bootloader.c **** 
 759:.\Generated_Source\PSoC4/Bootloader.c ****     CYBIT     communicationState = Bootloader_COMMUNICATION_STATE_IDLE;
 760:.\Generated_Source\PSoC4/Bootloader.c **** 
 761:.\Generated_Source\PSoC4/Bootloader.c ****     uint8     packetBuffer[Bootloader_SIZEOF_COMMAND_BUFFER];
 762:.\Generated_Source\PSoC4/Bootloader.c ****     uint8     dataBuffer  [Bootloader_SIZEOF_COMMAND_BUFFER];
 763:.\Generated_Source\PSoC4/Bootloader.c **** 
 764:.\Generated_Source\PSoC4/Bootloader.c **** 
 765:.\Generated_Source\PSoC4/Bootloader.c ****     #if(!CY_PSOC4)
 766:.\Generated_Source\PSoC4/Bootloader.c ****         #if(0u == Bootloader_FAST_APP_VALIDATION)
 767:.\Generated_Source\PSoC4/Bootloader.c ****             #if !defined(CY_BOOT_VERSION)
 768:.\Generated_Source\PSoC4/Bootloader.c **** 
 769:.\Generated_Source\PSoC4/Bootloader.c ****                 /* Not required with cy_boot 4.20 */
 770:.\Generated_Source\PSoC4/Bootloader.c ****                 uint8 CYXDATA Bootloader_flashBuffer[Bootloader_FROW_SIZE];
 771:.\Generated_Source\PSoC4/Bootloader.c **** 
 772:.\Generated_Source\PSoC4/Bootloader.c ****             #endif /* !defined(CY_BOOT_VERSION) */
 773:.\Generated_Source\PSoC4/Bootloader.c ****         #endif  /* (0u == Bootloader_FAST_APP_VALIDATION) */
 774:.\Generated_Source\PSoC4/Bootloader.c ****     #endif  /* (CY_PSOC4) */
 775:.\Generated_Source\PSoC4/Bootloader.c **** 
 776:.\Generated_Source\PSoC4/Bootloader.c **** 
 777:.\Generated_Source\PSoC4/Bootloader.c **** 
 778:.\Generated_Source\PSoC4/Bootloader.c ****     #if(!CY_PSOC4)
 779:.\Generated_Source\PSoC4/Bootloader.c ****         #if(0u == Bootloader_FAST_APP_VALIDATION)
 780:.\Generated_Source\PSoC4/Bootloader.c **** 
 781:.\Generated_Source\PSoC4/Bootloader.c ****             /* Initialize Flash subsystem for non-PSoC 4 devices */
 782:.\Generated_Source\PSoC4/Bootloader.c ****             if (CYRET_SUCCESS != CySetTemp())
 783:.\Generated_Source\PSoC4/Bootloader.c ****             {
 784:.\Generated_Source\PSoC4/Bootloader.c ****                 CyHalt(0x00u);
 785:.\Generated_Source\PSoC4/Bootloader.c ****             }
 786:.\Generated_Source\PSoC4/Bootloader.c **** 
 787:.\Generated_Source\PSoC4/Bootloader.c ****             #if !defined(CY_BOOT_VERSION)
 788:.\Generated_Source\PSoC4/Bootloader.c **** 
 789:.\Generated_Source\PSoC4/Bootloader.c ****                 /* Not required with cy_boot 4.20 */
 790:.\Generated_Source\PSoC4/Bootloader.c ****                 if (CYRET_SUCCESS != CySetFlashEEBuffer(Bootloader_flashBuffer))
 791:.\Generated_Source\PSoC4/Bootloader.c ****                 {
 792:.\Generated_Source\PSoC4/Bootloader.c ****                     CyHalt(0x00u);
 793:.\Generated_Source\PSoC4/Bootloader.c ****                 }
 794:.\Generated_Source\PSoC4/Bootloader.c **** 
 795:.\Generated_Source\PSoC4/Bootloader.c ****             #endif /* !defined(CY_BOOT_VERSION) */
 796:.\Generated_Source\PSoC4/Bootloader.c ****         #endif  /* (0u == Bootloader_FAST_APP_VALIDATION) */
 797:.\Generated_Source\PSoC4/Bootloader.c ****     #endif  /* (CY_PSOC4) */
 798:.\Generated_Source\PSoC4/Bootloader.c **** 
 799:.\Generated_Source\PSoC4/Bootloader.c ****     /* Initialize communications channel. */
 800:.\Generated_Source\PSoC4/Bootloader.c ****     CyBtldrCommStart();
ARM GAS  C:\Users\PC69\AppData\Local\Temp\cchFQXNr.s 			page 17


 801:.\Generated_Source\PSoC4/Bootloader.c **** 
 802:.\Generated_Source\PSoC4/Bootloader.c ****     /* Enable global interrupts */
 803:.\Generated_Source\PSoC4/Bootloader.c ****     CyGlobalIntEnable;
 804:.\Generated_Source\PSoC4/Bootloader.c **** 
 805:.\Generated_Source\PSoC4/Bootloader.c ****     do
 806:.\Generated_Source\PSoC4/Bootloader.c ****     {
 807:.\Generated_Source\PSoC4/Bootloader.c ****         ackCode = CYRET_SUCCESS;
 808:.\Generated_Source\PSoC4/Bootloader.c **** 
 809:.\Generated_Source\PSoC4/Bootloader.c ****         do
 810:.\Generated_Source\PSoC4/Bootloader.c ****         {
 811:.\Generated_Source\PSoC4/Bootloader.c ****             readStat = CyBtldrCommRead(packetBuffer,
 812:.\Generated_Source\PSoC4/Bootloader.c ****                                         Bootloader_SIZEOF_COMMAND_BUFFER,
 813:.\Generated_Source\PSoC4/Bootloader.c ****                                         &numberRead,
 814:.\Generated_Source\PSoC4/Bootloader.c ****                                         (0u == timeOut) ? 0xFFu : timeOut);
 815:.\Generated_Source\PSoC4/Bootloader.c ****             if (0u != timeOut)
 816:.\Generated_Source\PSoC4/Bootloader.c ****             {
 817:.\Generated_Source\PSoC4/Bootloader.c ****                 timeOutCnt--;
 818:.\Generated_Source\PSoC4/Bootloader.c ****             }
 819:.\Generated_Source\PSoC4/Bootloader.c **** 
 820:.\Generated_Source\PSoC4/Bootloader.c ****         } while ( (0u != timeOutCnt) && (readStat != CYRET_SUCCESS) );
 821:.\Generated_Source\PSoC4/Bootloader.c **** 
 822:.\Generated_Source\PSoC4/Bootloader.c **** 
 823:.\Generated_Source\PSoC4/Bootloader.c ****         if( readStat != CYRET_SUCCESS )
 824:.\Generated_Source\PSoC4/Bootloader.c ****         {
 825:.\Generated_Source\PSoC4/Bootloader.c ****             continue;
 826:.\Generated_Source\PSoC4/Bootloader.c ****         }
 827:.\Generated_Source\PSoC4/Bootloader.c **** 
 828:.\Generated_Source\PSoC4/Bootloader.c ****         if((numberRead < Bootloader_MIN_PKT_SIZE) ||
 829:.\Generated_Source\PSoC4/Bootloader.c ****            (packetBuffer[Bootloader_SOP_ADDR] != Bootloader_SOP))
 830:.\Generated_Source\PSoC4/Bootloader.c ****         {
 831:.\Generated_Source\PSoC4/Bootloader.c ****             ackCode = Bootloader_ERR_DATA;
 832:.\Generated_Source\PSoC4/Bootloader.c ****         }
 833:.\Generated_Source\PSoC4/Bootloader.c ****         else
 834:.\Generated_Source\PSoC4/Bootloader.c ****         {
 835:.\Generated_Source\PSoC4/Bootloader.c ****             pktSize = ((uint16)((uint16)packetBuffer[Bootloader_SIZE_ADDR + 1u] << 8u)) |
 836:.\Generated_Source\PSoC4/Bootloader.c ****                                packetBuffer[Bootloader_SIZE_ADDR];
 837:.\Generated_Source\PSoC4/Bootloader.c **** 
 838:.\Generated_Source\PSoC4/Bootloader.c ****             pktChecksum = ((uint16)((uint16)packetBuffer[Bootloader_CHK_ADDR(pktSize) + 1u] << 8u))
 839:.\Generated_Source\PSoC4/Bootloader.c ****                                    packetBuffer[Bootloader_CHK_ADDR(pktSize)];
 840:.\Generated_Source\PSoC4/Bootloader.c **** 
 841:.\Generated_Source\PSoC4/Bootloader.c ****             if((pktSize + Bootloader_MIN_PKT_SIZE) > numberRead)
 842:.\Generated_Source\PSoC4/Bootloader.c ****             {
 843:.\Generated_Source\PSoC4/Bootloader.c ****                 ackCode = Bootloader_ERR_LENGTH;
 844:.\Generated_Source\PSoC4/Bootloader.c ****             }
 845:.\Generated_Source\PSoC4/Bootloader.c ****             else if(packetBuffer[Bootloader_EOP_ADDR(pktSize)] != Bootloader_EOP)
 846:.\Generated_Source\PSoC4/Bootloader.c ****             {
 847:.\Generated_Source\PSoC4/Bootloader.c ****                 ackCode = Bootloader_ERR_DATA;
 848:.\Generated_Source\PSoC4/Bootloader.c ****             }
 849:.\Generated_Source\PSoC4/Bootloader.c ****             else if(pktChecksum != Bootloader_CalcPacketChecksum(packetBuffer,
 850:.\Generated_Source\PSoC4/Bootloader.c ****                                                                         pktSize + Bootloader_DATA_A
 851:.\Generated_Source\PSoC4/Bootloader.c ****             {
 852:.\Generated_Source\PSoC4/Bootloader.c ****                 ackCode = Bootloader_ERR_CHECKSUM;
 853:.\Generated_Source\PSoC4/Bootloader.c ****             }
 854:.\Generated_Source\PSoC4/Bootloader.c ****             else
 855:.\Generated_Source\PSoC4/Bootloader.c ****             {
 856:.\Generated_Source\PSoC4/Bootloader.c ****                 /* Empty section */
 857:.\Generated_Source\PSoC4/Bootloader.c ****             }
ARM GAS  C:\Users\PC69\AppData\Local\Temp\cchFQXNr.s 			page 18


 858:.\Generated_Source\PSoC4/Bootloader.c ****         }
 859:.\Generated_Source\PSoC4/Bootloader.c **** 
 860:.\Generated_Source\PSoC4/Bootloader.c ****         rspSize = 0u;
 861:.\Generated_Source\PSoC4/Bootloader.c ****         if(ackCode == CYRET_SUCCESS)
 862:.\Generated_Source\PSoC4/Bootloader.c ****         {
 863:.\Generated_Source\PSoC4/Bootloader.c ****             uint8 CYDATA btldrData = packetBuffer[Bootloader_DATA_ADDR];
 864:.\Generated_Source\PSoC4/Bootloader.c **** 
 865:.\Generated_Source\PSoC4/Bootloader.c ****             ackCode = Bootloader_ERR_DATA;
 866:.\Generated_Source\PSoC4/Bootloader.c ****             switch(packetBuffer[Bootloader_CMD_ADDR])
 867:.\Generated_Source\PSoC4/Bootloader.c ****             {
 868:.\Generated_Source\PSoC4/Bootloader.c **** 
 869:.\Generated_Source\PSoC4/Bootloader.c **** 
 870:.\Generated_Source\PSoC4/Bootloader.c ****             /***************************************************************************
 871:.\Generated_Source\PSoC4/Bootloader.c ****             *   Get metadata
 872:.\Generated_Source\PSoC4/Bootloader.c ****             ***************************************************************************/
 873:.\Generated_Source\PSoC4/Bootloader.c ****             #if(0u != Bootloader_CMD_GET_METADATA)
 874:.\Generated_Source\PSoC4/Bootloader.c **** 
 875:.\Generated_Source\PSoC4/Bootloader.c ****                 case Bootloader_COMMAND_GET_METADATA:
 876:.\Generated_Source\PSoC4/Bootloader.c **** 
 877:.\Generated_Source\PSoC4/Bootloader.c ****                     if((Bootloader_COMMUNICATION_STATE_ACTIVE == communicationState) && (pktSize ==
 878:.\Generated_Source\PSoC4/Bootloader.c ****                     {
 879:.\Generated_Source\PSoC4/Bootloader.c ****                         if (btldrData >= Bootloader_MAX_NUM_OF_BTLDB)
 880:.\Generated_Source\PSoC4/Bootloader.c ****                         {
 881:.\Generated_Source\PSoC4/Bootloader.c ****                             ackCode = Bootloader_ERR_APP;
 882:.\Generated_Source\PSoC4/Bootloader.c ****                         }
 883:.\Generated_Source\PSoC4/Bootloader.c ****                         else if(CYRET_SUCCESS == Bootloader_ValidateBootloadable(btldrData))
 884:.\Generated_Source\PSoC4/Bootloader.c ****                         {
 885:.\Generated_Source\PSoC4/Bootloader.c ****                             #if(CY_PSOC3)
 886:.\Generated_Source\PSoC4/Bootloader.c ****                                 (void) memcpy(&packetBuffer[Bootloader_DATA_ADDR],
 887:.\Generated_Source\PSoC4/Bootloader.c ****                                             ((uint8  CYCODE *) (Bootloader_META_BASE(btldrData))),
 888:.\Generated_Source\PSoC4/Bootloader.c ****                                             Bootloader_GET_METADATA_RESPONSE_SIZE);
 889:.\Generated_Source\PSoC4/Bootloader.c ****                             #else
 890:.\Generated_Source\PSoC4/Bootloader.c ****                                 (void) memcpy(&packetBuffer[Bootloader_DATA_ADDR],
 891:.\Generated_Source\PSoC4/Bootloader.c ****                                             (uint8 *) Bootloader_META_BASE(btldrData),
 892:.\Generated_Source\PSoC4/Bootloader.c ****                                             Bootloader_GET_METADATA_RESPONSE_SIZE);
 893:.\Generated_Source\PSoC4/Bootloader.c ****                             #endif  /* (CY_PSOC3) */
 894:.\Generated_Source\PSoC4/Bootloader.c **** 
 895:.\Generated_Source\PSoC4/Bootloader.c ****                             rspSize = 56u;
 896:.\Generated_Source\PSoC4/Bootloader.c ****                             ackCode = CYRET_SUCCESS;
 897:.\Generated_Source\PSoC4/Bootloader.c ****                         }
 898:.\Generated_Source\PSoC4/Bootloader.c ****                         else
 899:.\Generated_Source\PSoC4/Bootloader.c ****                         {
 900:.\Generated_Source\PSoC4/Bootloader.c ****                             ackCode = Bootloader_ERR_APP;
 901:.\Generated_Source\PSoC4/Bootloader.c ****                         }
 902:.\Generated_Source\PSoC4/Bootloader.c ****                     }
 903:.\Generated_Source\PSoC4/Bootloader.c ****                     break;
 904:.\Generated_Source\PSoC4/Bootloader.c **** 
 905:.\Generated_Source\PSoC4/Bootloader.c ****             #endif  /* (0u != Bootloader_CMD_GET_METADATA) */
 906:.\Generated_Source\PSoC4/Bootloader.c **** 
 907:.\Generated_Source\PSoC4/Bootloader.c **** 
 908:.\Generated_Source\PSoC4/Bootloader.c ****             /***************************************************************************
 909:.\Generated_Source\PSoC4/Bootloader.c ****             *   Verify checksum
 910:.\Generated_Source\PSoC4/Bootloader.c ****             ***************************************************************************/
 911:.\Generated_Source\PSoC4/Bootloader.c ****             case Bootloader_COMMAND_CHECKSUM:
 912:.\Generated_Source\PSoC4/Bootloader.c **** 
 913:.\Generated_Source\PSoC4/Bootloader.c ****                 if((Bootloader_COMMUNICATION_STATE_ACTIVE == communicationState) && (pktSize == 0u)
 914:.\Generated_Source\PSoC4/Bootloader.c ****                 {
ARM GAS  C:\Users\PC69\AppData\Local\Temp\cchFQXNr.s 			page 19


 915:.\Generated_Source\PSoC4/Bootloader.c ****                     packetBuffer[Bootloader_DATA_ADDR] =
 916:.\Generated_Source\PSoC4/Bootloader.c ****                             (uint8)(Bootloader_ValidateBootloadable(Bootloader_activeApp) == CYRET_
 917:.\Generated_Source\PSoC4/Bootloader.c **** 
 918:.\Generated_Source\PSoC4/Bootloader.c ****                     rspSize = 1u;
 919:.\Generated_Source\PSoC4/Bootloader.c ****                     ackCode = CYRET_SUCCESS;
 920:.\Generated_Source\PSoC4/Bootloader.c ****                 }
 921:.\Generated_Source\PSoC4/Bootloader.c ****                 break;
 922:.\Generated_Source\PSoC4/Bootloader.c **** 
 923:.\Generated_Source\PSoC4/Bootloader.c **** 
 924:.\Generated_Source\PSoC4/Bootloader.c ****             /***************************************************************************
 925:.\Generated_Source\PSoC4/Bootloader.c ****             *   Get flash size
 926:.\Generated_Source\PSoC4/Bootloader.c ****             ***************************************************************************/
 927:.\Generated_Source\PSoC4/Bootloader.c **** 
 928:.\Generated_Source\PSoC4/Bootloader.c ****             /* Replace Bootloader_NUM_OF_FLASH_ARRAYS with CY_FLASH_NUMBER_ARRAYS */
 929:.\Generated_Source\PSoC4/Bootloader.c **** 
 930:.\Generated_Source\PSoC4/Bootloader.c **** 
 931:.\Generated_Source\PSoC4/Bootloader.c ****             #if(0u != Bootloader_CMD_GET_FLASH_SIZE_AVAIL)
 932:.\Generated_Source\PSoC4/Bootloader.c **** 
 933:.\Generated_Source\PSoC4/Bootloader.c ****                 case Bootloader_COMMAND_REPORT_SIZE:
 934:.\Generated_Source\PSoC4/Bootloader.c **** 
 935:.\Generated_Source\PSoC4/Bootloader.c ****                     /* btldrData - holds flash array ID sent by host */
 936:.\Generated_Source\PSoC4/Bootloader.c **** 
 937:.\Generated_Source\PSoC4/Bootloader.c ****                     if((Bootloader_COMMUNICATION_STATE_ACTIVE == communicationState) && (pktSize ==
 938:.\Generated_Source\PSoC4/Bootloader.c ****                     {
 939:.\Generated_Source\PSoC4/Bootloader.c ****                         if(btldrData < CY_FLASH_NUMBER_ARRAYS)
 940:.\Generated_Source\PSoC4/Bootloader.c ****                         {
 941:.\Generated_Source\PSoC4/Bootloader.c ****                             uint16 CYDATA startRow;
 942:.\Generated_Source\PSoC4/Bootloader.c ****                             uint8  CYDATA ArrayIdBtlderEnds;
 943:.\Generated_Source\PSoC4/Bootloader.c **** 
 944:.\Generated_Source\PSoC4/Bootloader.c **** 
 945:.\Generated_Source\PSoC4/Bootloader.c ****                             /**********************************************************************
 946:.\Generated_Source\PSoC4/Bootloader.c ****                             * - For the flash array where bootloader application ends, return the f
 947:.\Generated_Source\PSoC4/Bootloader.c ****                             *   full row after the bootloader application.
 948:.\Generated_Source\PSoC4/Bootloader.c ****                             *
 949:.\Generated_Source\PSoC4/Bootloader.c ****                             * - For the fully occupied flash array, the number of rows in array is 
 950:.\Generated_Source\PSoC4/Bootloader.c ****                             *   As there is no space for the bootloadable application in this array
 951:.\Generated_Source\PSoC4/Bootloader.c ****                             *
 952:.\Generated_Source\PSoC4/Bootloader.c ****                             * - For the arrays next to the occupied array, zero is returned.
 953:.\Generated_Source\PSoC4/Bootloader.c ****                             *   The bootloadable application can written from the their beginning.
 954:.\Generated_Source\PSoC4/Bootloader.c ****                             *
 955:.\Generated_Source\PSoC4/Bootloader.c ****                             ***********************************************************************
 956:.\Generated_Source\PSoC4/Bootloader.c ****                             ArrayIdBtlderEnds = (uint8)  (*Bootloader_SizeBytesAccess / CY_FLASH_SI
 957:.\Generated_Source\PSoC4/Bootloader.c **** 
 958:.\Generated_Source\PSoC4/Bootloader.c ****                             if (btldrData == ArrayIdBtlderEnds)
 959:.\Generated_Source\PSoC4/Bootloader.c ****                             {
 960:.\Generated_Source\PSoC4/Bootloader.c ****                                 startRow = (uint16) (*Bootloader_SizeBytesAccess / CY_FLASH_SIZEOF_
 961:.\Generated_Source\PSoC4/Bootloader.c ****                                             Bootloader_NUMBER_OF_ROWS_IN_ARRAY;
 962:.\Generated_Source\PSoC4/Bootloader.c ****                             }
 963:.\Generated_Source\PSoC4/Bootloader.c ****                             else if (btldrData > ArrayIdBtlderEnds)
 964:.\Generated_Source\PSoC4/Bootloader.c ****                             {
 965:.\Generated_Source\PSoC4/Bootloader.c ****                                 startRow = Bootloader_FIRST_ROW_IN_ARRAY;
 966:.\Generated_Source\PSoC4/Bootloader.c ****                             }
 967:.\Generated_Source\PSoC4/Bootloader.c ****                             else /* (btldrData < ArrayIdBtlderEnds) */
 968:.\Generated_Source\PSoC4/Bootloader.c ****                             {
 969:.\Generated_Source\PSoC4/Bootloader.c ****                                 startRow = Bootloader_NUMBER_OF_ROWS_IN_ARRAY;
 970:.\Generated_Source\PSoC4/Bootloader.c ****                             }
 971:.\Generated_Source\PSoC4/Bootloader.c **** 
ARM GAS  C:\Users\PC69\AppData\Local\Temp\cchFQXNr.s 			page 20


 972:.\Generated_Source\PSoC4/Bootloader.c ****                             packetBuffer[Bootloader_DATA_ADDR]      = LO8(startRow);
 973:.\Generated_Source\PSoC4/Bootloader.c ****                             packetBuffer[Bootloader_DATA_ADDR + 1u] = HI8(startRow);
 974:.\Generated_Source\PSoC4/Bootloader.c **** 
 975:.\Generated_Source\PSoC4/Bootloader.c ****                             packetBuffer[Bootloader_DATA_ADDR + 2u] =
 976:.\Generated_Source\PSoC4/Bootloader.c ****                                         LO8(Bootloader_NUMBER_OF_ROWS_IN_ARRAY - 1u);
 977:.\Generated_Source\PSoC4/Bootloader.c **** 
 978:.\Generated_Source\PSoC4/Bootloader.c ****                             packetBuffer[Bootloader_DATA_ADDR + 3u] =
 979:.\Generated_Source\PSoC4/Bootloader.c ****                                         HI8(Bootloader_NUMBER_OF_ROWS_IN_ARRAY - 1u);
 980:.\Generated_Source\PSoC4/Bootloader.c **** 
 981:.\Generated_Source\PSoC4/Bootloader.c ****                             rspSize = 4u;
 982:.\Generated_Source\PSoC4/Bootloader.c ****                             ackCode = CYRET_SUCCESS;
 983:.\Generated_Source\PSoC4/Bootloader.c ****                         }
 984:.\Generated_Source\PSoC4/Bootloader.c **** 
 985:.\Generated_Source\PSoC4/Bootloader.c ****                     }
 986:.\Generated_Source\PSoC4/Bootloader.c ****                     break;
 987:.\Generated_Source\PSoC4/Bootloader.c **** 
 988:.\Generated_Source\PSoC4/Bootloader.c ****             #endif  /* (0u != Bootloader_CMD_GET_FLASH_SIZE_AVAIL) */
 989:.\Generated_Source\PSoC4/Bootloader.c **** 
 990:.\Generated_Source\PSoC4/Bootloader.c **** 
 991:.\Generated_Source\PSoC4/Bootloader.c ****             /***************************************************************************
 992:.\Generated_Source\PSoC4/Bootloader.c ****             *   Get application status
 993:.\Generated_Source\PSoC4/Bootloader.c ****             ***************************************************************************/
 994:.\Generated_Source\PSoC4/Bootloader.c ****             #if(0u != Bootloader_DUAL_APP_BOOTLOADER)
 995:.\Generated_Source\PSoC4/Bootloader.c **** 
 996:.\Generated_Source\PSoC4/Bootloader.c ****                 #if(0u != Bootloader_CMD_GET_APP_STATUS_AVAIL)
 997:.\Generated_Source\PSoC4/Bootloader.c **** 
 998:.\Generated_Source\PSoC4/Bootloader.c ****                     case Bootloader_COMMAND_APP_STATUS:
 999:.\Generated_Source\PSoC4/Bootloader.c **** 
1000:.\Generated_Source\PSoC4/Bootloader.c ****                         if((Bootloader_COMMUNICATION_STATE_ACTIVE == communicationState) && (pktSiz
1001:.\Generated_Source\PSoC4/Bootloader.c ****                         {
1002:.\Generated_Source\PSoC4/Bootloader.c **** 
1003:.\Generated_Source\PSoC4/Bootloader.c ****                             packetBuffer[Bootloader_DATA_ADDR] =
1004:.\Generated_Source\PSoC4/Bootloader.c ****                                 (uint8)Bootloader_ValidateBootloadable(btldrData);
1005:.\Generated_Source\PSoC4/Bootloader.c **** 
1006:.\Generated_Source\PSoC4/Bootloader.c ****                             packetBuffer[Bootloader_DATA_ADDR + 1u] =
1007:.\Generated_Source\PSoC4/Bootloader.c ****                                 (uint8) Bootloader_GetMetadata(Bootloader_GET_BTLDB_ACTIVE, btldrDa
1008:.\Generated_Source\PSoC4/Bootloader.c **** 
1009:.\Generated_Source\PSoC4/Bootloader.c ****                             rspSize = 2u;
1010:.\Generated_Source\PSoC4/Bootloader.c ****                             ackCode = CYRET_SUCCESS;
1011:.\Generated_Source\PSoC4/Bootloader.c ****                         }
1012:.\Generated_Source\PSoC4/Bootloader.c ****                         break;
1013:.\Generated_Source\PSoC4/Bootloader.c **** 
1014:.\Generated_Source\PSoC4/Bootloader.c ****                 #endif  /* (0u != Bootloader_CMD_GET_APP_STATUS_AVAIL) */
1015:.\Generated_Source\PSoC4/Bootloader.c **** 
1016:.\Generated_Source\PSoC4/Bootloader.c ****             #endif  /* (0u != Bootloader_DUAL_APP_BOOTLOADER) */
1017:.\Generated_Source\PSoC4/Bootloader.c **** 
1018:.\Generated_Source\PSoC4/Bootloader.c **** 
1019:.\Generated_Source\PSoC4/Bootloader.c ****             /***************************************************************************
1020:.\Generated_Source\PSoC4/Bootloader.c ****             *   Program / Erase row
1021:.\Generated_Source\PSoC4/Bootloader.c ****             ***************************************************************************/
1022:.\Generated_Source\PSoC4/Bootloader.c ****             case Bootloader_COMMAND_PROGRAM:
1023:.\Generated_Source\PSoC4/Bootloader.c **** 
1024:.\Generated_Source\PSoC4/Bootloader.c ****             /* The btldrData variable holds Flash Array ID */
1025:.\Generated_Source\PSoC4/Bootloader.c **** 
1026:.\Generated_Source\PSoC4/Bootloader.c ****         #if (0u != Bootloader_CMD_ERASE_ROW_AVAIL)
1027:.\Generated_Source\PSoC4/Bootloader.c **** 
1028:.\Generated_Source\PSoC4/Bootloader.c ****             case Bootloader_COMMAND_ERASE:
ARM GAS  C:\Users\PC69\AppData\Local\Temp\cchFQXNr.s 			page 21


1029:.\Generated_Source\PSoC4/Bootloader.c ****                 if (Bootloader_COMMAND_ERASE == packetBuffer[Bootloader_CMD_ADDR])
1030:.\Generated_Source\PSoC4/Bootloader.c ****                 {
1031:.\Generated_Source\PSoC4/Bootloader.c ****                     if ((Bootloader_COMMUNICATION_STATE_ACTIVE == communicationState) && (pktSize =
1032:.\Generated_Source\PSoC4/Bootloader.c ****                     {
1033:.\Generated_Source\PSoC4/Bootloader.c ****                         #if(!CY_PSOC4)
1034:.\Generated_Source\PSoC4/Bootloader.c ****                             if((btldrData >= Bootloader_FIRST_EE_ARRAYID) &&
1035:.\Generated_Source\PSoC4/Bootloader.c ****                                (btldrData <= Bootloader_LAST_EE_ARRAYID))
1036:.\Generated_Source\PSoC4/Bootloader.c ****                             {
1037:.\Generated_Source\PSoC4/Bootloader.c ****                                 /* Size of EEPROM row */
1038:.\Generated_Source\PSoC4/Bootloader.c ****                                 dataOffset = CY_EEPROM_SIZEOF_ROW;
1039:.\Generated_Source\PSoC4/Bootloader.c ****                             }
1040:.\Generated_Source\PSoC4/Bootloader.c ****                             else
1041:.\Generated_Source\PSoC4/Bootloader.c ****                             {
1042:.\Generated_Source\PSoC4/Bootloader.c ****                                 /* Size of FLASH row (depends on ECC configuration) */
1043:.\Generated_Source\PSoC4/Bootloader.c ****                                 dataOffset = Bootloader_FROW_SIZE;
1044:.\Generated_Source\PSoC4/Bootloader.c ****                             }
1045:.\Generated_Source\PSoC4/Bootloader.c ****                         #else
1046:.\Generated_Source\PSoC4/Bootloader.c ****                             /* Size of FLASH row (no ECC available) */
1047:.\Generated_Source\PSoC4/Bootloader.c ****                             dataOffset = Bootloader_FROW_SIZE;
1048:.\Generated_Source\PSoC4/Bootloader.c ****                         #endif  /* (!CY_PSOC4) */
1049:.\Generated_Source\PSoC4/Bootloader.c **** 
1050:.\Generated_Source\PSoC4/Bootloader.c ****                         #if(CY_PSOC3)
1051:.\Generated_Source\PSoC4/Bootloader.c ****                             (void) memset(dataBuffer, (char8) 0, (int16) dataOffset);
1052:.\Generated_Source\PSoC4/Bootloader.c ****                         #else
1053:.\Generated_Source\PSoC4/Bootloader.c ****                             (void) memset(dataBuffer, 0, (uint32) dataOffset);
1054:.\Generated_Source\PSoC4/Bootloader.c ****                         #endif  /* (CY_PSOC3) */
1055:.\Generated_Source\PSoC4/Bootloader.c ****                     }
1056:.\Generated_Source\PSoC4/Bootloader.c ****                     else
1057:.\Generated_Source\PSoC4/Bootloader.c ****                     {
1058:.\Generated_Source\PSoC4/Bootloader.c ****                         break;
1059:.\Generated_Source\PSoC4/Bootloader.c ****                     }
1060:.\Generated_Source\PSoC4/Bootloader.c ****                 }
1061:.\Generated_Source\PSoC4/Bootloader.c **** 
1062:.\Generated_Source\PSoC4/Bootloader.c ****         #endif  /* (0u != Bootloader_CMD_ERASE_ROW_AVAIL) */
1063:.\Generated_Source\PSoC4/Bootloader.c **** 
1064:.\Generated_Source\PSoC4/Bootloader.c **** 
1065:.\Generated_Source\PSoC4/Bootloader.c ****                 if((Bootloader_COMMUNICATION_STATE_ACTIVE == communicationState) && (pktSize >= 3u)
1066:.\Generated_Source\PSoC4/Bootloader.c ****                 {
1067:.\Generated_Source\PSoC4/Bootloader.c **** 
1068:.\Generated_Source\PSoC4/Bootloader.c ****                     /* The command may be sent along with the last block of data, to program the ro
1069:.\Generated_Source\PSoC4/Bootloader.c ****                     #if(CY_PSOC3)
1070:.\Generated_Source\PSoC4/Bootloader.c ****                         (void) memcpy(&dataBuffer[dataOffset],
1071:.\Generated_Source\PSoC4/Bootloader.c ****                                       &packetBuffer[Bootloader_DATA_ADDR + 3u],
1072:.\Generated_Source\PSoC4/Bootloader.c ****                                       (int16) pktSize - 3);
1073:.\Generated_Source\PSoC4/Bootloader.c ****                     #else
1074:.\Generated_Source\PSoC4/Bootloader.c ****                         (void) memcpy(&dataBuffer[dataOffset],
1075:.\Generated_Source\PSoC4/Bootloader.c ****                                       &packetBuffer[Bootloader_DATA_ADDR + 3u],
1076:.\Generated_Source\PSoC4/Bootloader.c ****                                       (uint32) pktSize - 3u);
1077:.\Generated_Source\PSoC4/Bootloader.c ****                     #endif  /* (CY_PSOC3) */
1078:.\Generated_Source\PSoC4/Bootloader.c **** 
1079:.\Generated_Source\PSoC4/Bootloader.c ****                     dataOffset += (pktSize - 3u);
1080:.\Generated_Source\PSoC4/Bootloader.c **** 
1081:.\Generated_Source\PSoC4/Bootloader.c ****                     #if(!CY_PSOC4)
1082:.\Generated_Source\PSoC4/Bootloader.c ****                         if((btldrData >= Bootloader_FIRST_EE_ARRAYID) &&
1083:.\Generated_Source\PSoC4/Bootloader.c ****                            (btldrData <= Bootloader_LAST_EE_ARRAYID))
1084:.\Generated_Source\PSoC4/Bootloader.c ****                         {
1085:.\Generated_Source\PSoC4/Bootloader.c **** 
ARM GAS  C:\Users\PC69\AppData\Local\Temp\cchFQXNr.s 			page 22


1086:.\Generated_Source\PSoC4/Bootloader.c ****                             CyEEPROM_Start();
1087:.\Generated_Source\PSoC4/Bootloader.c **** 
1088:.\Generated_Source\PSoC4/Bootloader.c ****                             /* Size of EEPROM row */
1089:.\Generated_Source\PSoC4/Bootloader.c ****                             pktSize = CY_EEPROM_SIZEOF_ROW;
1090:.\Generated_Source\PSoC4/Bootloader.c ****                         }
1091:.\Generated_Source\PSoC4/Bootloader.c ****                         else
1092:.\Generated_Source\PSoC4/Bootloader.c ****                         {
1093:.\Generated_Source\PSoC4/Bootloader.c ****                             /* Size of FLASH row (depends on ECC configuration) */
1094:.\Generated_Source\PSoC4/Bootloader.c ****                             pktSize = Bootloader_FROW_SIZE;
1095:.\Generated_Source\PSoC4/Bootloader.c ****                         }
1096:.\Generated_Source\PSoC4/Bootloader.c ****                     #else
1097:.\Generated_Source\PSoC4/Bootloader.c ****                         /* Size of FLASH row (no ECC available) */
1098:.\Generated_Source\PSoC4/Bootloader.c ****                         pktSize = Bootloader_FROW_SIZE;
1099:.\Generated_Source\PSoC4/Bootloader.c ****                     #endif  /* (!CY_PSOC4) */
1100:.\Generated_Source\PSoC4/Bootloader.c **** 
1101:.\Generated_Source\PSoC4/Bootloader.c **** 
1102:.\Generated_Source\PSoC4/Bootloader.c ****                     /* Check if we have all data to program */
1103:.\Generated_Source\PSoC4/Bootloader.c ****                     if(dataOffset == pktSize)
1104:.\Generated_Source\PSoC4/Bootloader.c ****                     {
1105:.\Generated_Source\PSoC4/Bootloader.c ****                         uint16 row;
1106:.\Generated_Source\PSoC4/Bootloader.c ****                         uint16 firstRow;
1107:.\Generated_Source\PSoC4/Bootloader.c **** 
1108:.\Generated_Source\PSoC4/Bootloader.c ****                         /* Get FLASH/EEPROM row number inside of the array */
1109:.\Generated_Source\PSoC4/Bootloader.c ****                         dataOffset = ((uint16)((uint16)packetBuffer[Bootloader_DATA_ADDR + 2u] << 8
1110:.\Generated_Source\PSoC4/Bootloader.c ****                                               packetBuffer[Bootloader_DATA_ADDR + 1u];
1111:.\Generated_Source\PSoC4/Bootloader.c **** 
1112:.\Generated_Source\PSoC4/Bootloader.c **** 
1113:.\Generated_Source\PSoC4/Bootloader.c ****                         /* Metadata section resides in Flash (cannot be in EEPROM). */
1114:.\Generated_Source\PSoC4/Bootloader.c ****                         #if(!CY_PSOC4)
1115:.\Generated_Source\PSoC4/Bootloader.c ****                             if(btldrData <= Bootloader_LAST_FLASH_ARRAYID)
1116:.\Generated_Source\PSoC4/Bootloader.c ****                             {
1117:.\Generated_Source\PSoC4/Bootloader.c ****                         #endif  /* (!CY_PSOC4) */
1118:.\Generated_Source\PSoC4/Bootloader.c **** 
1119:.\Generated_Source\PSoC4/Bootloader.c **** 
1120:.\Generated_Source\PSoC4/Bootloader.c ****                         /* btldrData  - holds flash array Id sent by host */
1121:.\Generated_Source\PSoC4/Bootloader.c ****                         /* dataOffset - holds flash row Id sent by host   */
1122:.\Generated_Source\PSoC4/Bootloader.c ****                         row = (uint16)(btldrData * Bootloader_NUMBER_OF_ROWS_IN_ARRAY) + dataOffset
1123:.\Generated_Source\PSoC4/Bootloader.c **** 
1124:.\Generated_Source\PSoC4/Bootloader.c **** 
1125:.\Generated_Source\PSoC4/Bootloader.c ****                         /**************************************************************************
1126:.\Generated_Source\PSoC4/Bootloader.c ****                         * Refuse to write to the row within range of the bootloader application
1127:.\Generated_Source\PSoC4/Bootloader.c ****                         ***************************************************************************
1128:.\Generated_Source\PSoC4/Bootloader.c **** 
1129:.\Generated_Source\PSoC4/Bootloader.c ****                         /* First empty flash row after bootloader application */
1130:.\Generated_Source\PSoC4/Bootloader.c ****                         firstRow = (uint16) (*Bootloader_SizeBytesAccess / CYDEV_FLS_ROW_SIZE);
1131:.\Generated_Source\PSoC4/Bootloader.c ****                         if ((*Bootloader_SizeBytesAccess % CYDEV_FLS_ROW_SIZE) != 0u)
1132:.\Generated_Source\PSoC4/Bootloader.c ****                         {
1133:.\Generated_Source\PSoC4/Bootloader.c ****                             firstRow++;
1134:.\Generated_Source\PSoC4/Bootloader.c ****                         }
1135:.\Generated_Source\PSoC4/Bootloader.c **** 
1136:.\Generated_Source\PSoC4/Bootloader.c ****                         /* Check to see if the row to program will not corrupt the bootloader appli
1137:.\Generated_Source\PSoC4/Bootloader.c ****                         if(row < firstRow)
1138:.\Generated_Source\PSoC4/Bootloader.c ****                         {
1139:.\Generated_Source\PSoC4/Bootloader.c ****                             ackCode = Bootloader_ERR_ROW;
1140:.\Generated_Source\PSoC4/Bootloader.c ****                             dataOffset = 0u;
1141:.\Generated_Source\PSoC4/Bootloader.c ****                             break;
1142:.\Generated_Source\PSoC4/Bootloader.c ****                         }
ARM GAS  C:\Users\PC69\AppData\Local\Temp\cchFQXNr.s 			page 23


1143:.\Generated_Source\PSoC4/Bootloader.c **** 
1144:.\Generated_Source\PSoC4/Bootloader.c **** 
1145:.\Generated_Source\PSoC4/Bootloader.c ****                         #if(0u != Bootloader_DUAL_APP_BOOTLOADER)
1146:.\Generated_Source\PSoC4/Bootloader.c **** 
1147:.\Generated_Source\PSoC4/Bootloader.c ****                             if(Bootloader_activeApp < Bootloader_MD_BTLDB_ACTIVE_NONE)
1148:.\Generated_Source\PSoC4/Bootloader.c ****                             {
1149:.\Generated_Source\PSoC4/Bootloader.c ****                                 uint16 lastRow;
1150:.\Generated_Source\PSoC4/Bootloader.c **** 
1151:.\Generated_Source\PSoC4/Bootloader.c **** 
1152:.\Generated_Source\PSoC4/Bootloader.c ****                                 /******************************************************************
1153:.\Generated_Source\PSoC4/Bootloader.c ****                                 * For the first bootloadable application gets the last flash row oc
1154:.\Generated_Source\PSoC4/Bootloader.c ****                                 * the bootloader application image:
1155:.\Generated_Source\PSoC4/Bootloader.c ****                                 *  ----------------------------------------------------------------
1156:.\Generated_Source\PSoC4/Bootloader.c ****                                 * | Bootloader   | Bootloadable # 1 |     | Bootloadable # 2 |     
1157:.\Generated_Source\PSoC4/Bootloader.c ****                                 *  ----------------------------------------------------------------
1158:.\Generated_Source\PSoC4/Bootloader.c ****                                 * |<--firstRow---|>
1159:.\Generated_Source\PSoC4/Bootloader.c ****                                 *
1160:.\Generated_Source\PSoC4/Bootloader.c ****                                 * For the second bootloadable application gets the last flash row o
1161:.\Generated_Source\PSoC4/Bootloader.c ****                                 * the first bootloadable application:
1162:.\Generated_Source\PSoC4/Bootloader.c ****                                 *  ----------------------------------------------------------------
1163:.\Generated_Source\PSoC4/Bootloader.c ****                                 * | Bootloader   | Bootloadable # 1 |     | Bootloadable # 2 |     
1164:.\Generated_Source\PSoC4/Bootloader.c ****                                 *  ----------------------------------------------------------------
1165:.\Generated_Source\PSoC4/Bootloader.c ****                                 * |<-------------firstRow-----------------|>
1166:.\Generated_Source\PSoC4/Bootloader.c ****                                 *
1167:.\Generated_Source\PSoC4/Bootloader.c ****                                 * Incremented by 1 to get the first available row.
1168:.\Generated_Source\PSoC4/Bootloader.c ****                                 *
1169:.\Generated_Source\PSoC4/Bootloader.c ****                                 * Note: M1 and M2 stands for the metadata # 1 and metadata # 2, met
1170:.\Generated_Source\PSoC4/Bootloader.c ****                                 * sections for the 1st and 2nd bootloadable applications.
1171:.\Generated_Source\PSoC4/Bootloader.c ****                                 *******************************************************************
1172:.\Generated_Source\PSoC4/Bootloader.c ****                                 firstRow = (uint16) 1u +
1173:.\Generated_Source\PSoC4/Bootloader.c ****                                     (uint16) Bootloader_GetMetadata(Bootloader_GET_BTLDR_LAST_ROW,
1174:.\Generated_Source\PSoC4/Bootloader.c ****                                                                           Bootloader_activeApp);
1175:.\Generated_Source\PSoC4/Bootloader.c **** 
1176:.\Generated_Source\PSoC4/Bootloader.c **** 
1177:.\Generated_Source\PSoC4/Bootloader.c ****                                 /******************************************************************
1178:.\Generated_Source\PSoC4/Bootloader.c ****                                 * The number of flash rows available for the both bootloadable appl
1179:.\Generated_Source\PSoC4/Bootloader.c ****                                 *
1180:.\Generated_Source\PSoC4/Bootloader.c ****                                 * First bootloadable application is active:
1181:.\Generated_Source\PSoC4/Bootloader.c ****                                 *  ----------------------------------------------------------------
1182:.\Generated_Source\PSoC4/Bootloader.c ****                                 * | Bootloader   | Bootloadable # 1 |     | Bootloadable # 2 |     
1183:.\Generated_Source\PSoC4/Bootloader.c ****                                 *  ----------------------------------------------------------------
1184:.\Generated_Source\PSoC4/Bootloader.c ****                                 *                |<-------------------lastRow -------------------->
1185:.\Generated_Source\PSoC4/Bootloader.c ****                                 *
1186:.\Generated_Source\PSoC4/Bootloader.c ****                                 * Second bootloadable application is active:
1187:.\Generated_Source\PSoC4/Bootloader.c ****                                 *  ----------------------------------------------------------------
1188:.\Generated_Source\PSoC4/Bootloader.c ****                                 * | Bootloader   | Bootloadable # 1 |     | Bootloadable # 2 |     
1189:.\Generated_Source\PSoC4/Bootloader.c ****                                 *  ----------------------------------------------------------------
1190:.\Generated_Source\PSoC4/Bootloader.c ****                                 *                                         |<-------lastRow-------->
1191:.\Generated_Source\PSoC4/Bootloader.c ****                                 *******************************************************************
1192:.\Generated_Source\PSoC4/Bootloader.c ****                                 lastRow = (uint16)(CY_FLASH_NUMBER_ROWS -
1193:.\Generated_Source\PSoC4/Bootloader.c ****                                                     Bootloader_NUMBER_OF_METADATA_ROWS -
1194:.\Generated_Source\PSoC4/Bootloader.c ****                                                     firstRow);
1195:.\Generated_Source\PSoC4/Bootloader.c **** 
1196:.\Generated_Source\PSoC4/Bootloader.c **** 
1197:.\Generated_Source\PSoC4/Bootloader.c ****                                 /******************************************************************
1198:.\Generated_Source\PSoC4/Bootloader.c ****                                 * The number of flash rows available for the active bootloadable ap
1199:.\Generated_Source\PSoC4/Bootloader.c ****                                 *
ARM GAS  C:\Users\PC69\AppData\Local\Temp\cchFQXNr.s 			page 24


1200:.\Generated_Source\PSoC4/Bootloader.c ****                                 * First bootloadable application is active: the number of flash row
1201:.\Generated_Source\PSoC4/Bootloader.c ****                                 * for the both bootloadable applications should be divided by 2 - 2
1202:.\Generated_Source\PSoC4/Bootloader.c ****                                 * applications should fit there.
1203:.\Generated_Source\PSoC4/Bootloader.c ****                                 *
1204:.\Generated_Source\PSoC4/Bootloader.c ****                                 * Second bootloadable application is active: the number of flash ro
1205:.\Generated_Source\PSoC4/Bootloader.c ****                                 * for the both bootloadable applications should be divided by 1 - 1
1206:.\Generated_Source\PSoC4/Bootloader.c ****                                 * application should fit there.
1207:.\Generated_Source\PSoC4/Bootloader.c ****                                 *******************************************************************
1208:.\Generated_Source\PSoC4/Bootloader.c ****                                 lastRow = lastRow / (Bootloader_NUMBER_OF_BTLDBLE_APPS -
1209:.\Generated_Source\PSoC4/Bootloader.c ****                                                 Bootloader_activeApp);
1210:.\Generated_Source\PSoC4/Bootloader.c **** 
1211:.\Generated_Source\PSoC4/Bootloader.c **** 
1212:.\Generated_Source\PSoC4/Bootloader.c ****                                 /******************************************************************
1213:.\Generated_Source\PSoC4/Bootloader.c ****                                 * The last row equals to the first row plus the number of rows avai
1214:.\Generated_Source\PSoC4/Bootloader.c ****                                 * the each bootloadable application. That gives the flash row numbe
1215:.\Generated_Source\PSoC4/Bootloader.c ****                                 * beyond the valid range, so we subtract 1.
1216:.\Generated_Source\PSoC4/Bootloader.c ****                                 *
1217:.\Generated_Source\PSoC4/Bootloader.c ****                                 * First bootloadable application is active:
1218:.\Generated_Source\PSoC4/Bootloader.c ****                                 *  ----------------------------------------------------------------
1219:.\Generated_Source\PSoC4/Bootloader.c ****                                 * | Bootloader   | Bootloadable # 1 |     | Bootloadable # 2 |     
1220:.\Generated_Source\PSoC4/Bootloader.c ****                                 *  ----------------------------------------------------------------
1221:.\Generated_Source\PSoC4/Bootloader.c ****                                 * |<----------------lastRow ------------->|
1222:.\Generated_Source\PSoC4/Bootloader.c ****                                 *
1223:.\Generated_Source\PSoC4/Bootloader.c ****                                 * Second bootloadable application is active:
1224:.\Generated_Source\PSoC4/Bootloader.c ****                                 *  ----------------------------------------------------------------
1225:.\Generated_Source\PSoC4/Bootloader.c ****                                 * | Bootloader   | Bootloadable # 1 |     | Bootloadable # 2 |     
1226:.\Generated_Source\PSoC4/Bootloader.c ****                                 *  ----------------------------------------------------------------
1227:.\Generated_Source\PSoC4/Bootloader.c ****                                 * |<-----------------------------lastRow-------------------------->
1228:.\Generated_Source\PSoC4/Bootloader.c ****                                 *******************************************************************
1229:.\Generated_Source\PSoC4/Bootloader.c ****                                 lastRow = (firstRow + lastRow) - 1u;
1230:.\Generated_Source\PSoC4/Bootloader.c **** 
1231:.\Generated_Source\PSoC4/Bootloader.c **** 
1232:.\Generated_Source\PSoC4/Bootloader.c ****                                 /******************************************************************
1233:.\Generated_Source\PSoC4/Bootloader.c ****                                 * 1. Refuse to write row within the range of the active application
1234:.\Generated_Source\PSoC4/Bootloader.c ****                                 *
1235:.\Generated_Source\PSoC4/Bootloader.c ****                                 *  First bootloadable application is active:
1236:.\Generated_Source\PSoC4/Bootloader.c ****                                 *   ---------------------------------------------------------------
1237:.\Generated_Source\PSoC4/Bootloader.c ****                                 *  | Bootloader   | Bootloadable # 1 |     | Bootloadable # 2 |    
1238:.\Generated_Source\PSoC4/Bootloader.c ****                                 *   ---------------------------------------------------------------
1239:.\Generated_Source\PSoC4/Bootloader.c ****                                 *  |<----------------lastRow ------------->|
1240:.\Generated_Source\PSoC4/Bootloader.c ****                                 *  |<--firstRow---|>
1241:.\Generated_Source\PSoC4/Bootloader.c ****                                 *                 |<-------protected------>|
1242:.\Generated_Source\PSoC4/Bootloader.c ****                                 *
1243:.\Generated_Source\PSoC4/Bootloader.c ****                                 *  Second bootloadable application is active:
1244:.\Generated_Source\PSoC4/Bootloader.c ****                                 *   ---------------------------------------------------------------
1245:.\Generated_Source\PSoC4/Bootloader.c ****                                 *  | Bootloader   | Bootloadable # 1 |     | Bootloadable # 2 |    
1246:.\Generated_Source\PSoC4/Bootloader.c ****                                 *   ---------------------------------------------------------------
1247:.\Generated_Source\PSoC4/Bootloader.c ****                                 *  |<-------------firstRow-----------------|>
1248:.\Generated_Source\PSoC4/Bootloader.c ****                                 *  |<-----------------------------lastRow--------------------------
1249:.\Generated_Source\PSoC4/Bootloader.c ****                                 *                                          |<-------protected------
1250:.\Generated_Source\PSoC4/Bootloader.c ****                                 *
1251:.\Generated_Source\PSoC4/Bootloader.c ****                                 * 2. Refuse to write to the row that contains metadata of the activ
1252:.\Generated_Source\PSoC4/Bootloader.c ****                                 *    bootloadable application.
1253:.\Generated_Source\PSoC4/Bootloader.c ****                                 *
1254:.\Generated_Source\PSoC4/Bootloader.c ****                                 *******************************************************************
1255:.\Generated_Source\PSoC4/Bootloader.c ****                                 if(((row >= firstRow) && (row <= lastRow)) ||
1256:.\Generated_Source\PSoC4/Bootloader.c ****                                    ((btldrData == Bootloader_MD_FLASH_ARRAY_NUM) &&
ARM GAS  C:\Users\PC69\AppData\Local\Temp\cchFQXNr.s 			page 25


1257:.\Generated_Source\PSoC4/Bootloader.c ****                                    (dataOffset == Bootloader_MD_ROW_NUM(Bootloader_activeApp))))
1258:.\Generated_Source\PSoC4/Bootloader.c ****                                 {
1259:.\Generated_Source\PSoC4/Bootloader.c ****                                     ackCode = Bootloader_ERR_ACTIVE;
1260:.\Generated_Source\PSoC4/Bootloader.c ****                                     dataOffset = 0u;
1261:.\Generated_Source\PSoC4/Bootloader.c ****                                     break;
1262:.\Generated_Source\PSoC4/Bootloader.c ****                                 }
1263:.\Generated_Source\PSoC4/Bootloader.c ****                             }
1264:.\Generated_Source\PSoC4/Bootloader.c **** 
1265:.\Generated_Source\PSoC4/Bootloader.c ****                         #endif  /* (0u != Bootloader_DUAL_APP_BOOTLOADER) */
1266:.\Generated_Source\PSoC4/Bootloader.c **** 
1267:.\Generated_Source\PSoC4/Bootloader.c **** 
1268:.\Generated_Source\PSoC4/Bootloader.c **** 
1269:.\Generated_Source\PSoC4/Bootloader.c ****                         /**************************************************************************
1270:.\Generated_Source\PSoC4/Bootloader.c ****                         * Clear row that contains the metadata, when 'Fast bootloadable application
1271:.\Generated_Source\PSoC4/Bootloader.c ****                         * validation' option is enabled.
1272:.\Generated_Source\PSoC4/Bootloader.c ****                         *
1273:.\Generated_Source\PSoC4/Bootloader.c ****                         * If 'Fast bootloadable application validation' option is enabled, the
1274:.\Generated_Source\PSoC4/Bootloader.c ****                         * bootloader only computes the checksum the first time and assumes that it
1275:.\Generated_Source\PSoC4/Bootloader.c ****                         * remains valid in each future startup. The metadata row is cleared because
1276:.\Generated_Source\PSoC4/Bootloader.c ****                         * bootloadable application might become corrupted during update, while
1277:.\Generated_Source\PSoC4/Bootloader.c ****                         * 'Bootloadable Application Verification Status' field will still report th
1278:.\Generated_Source\PSoC4/Bootloader.c ****                         * application is valid.
1279:.\Generated_Source\PSoC4/Bootloader.c ****                         ***************************************************************************
1280:.\Generated_Source\PSoC4/Bootloader.c ****                         #if(0u != Bootloader_FAST_APP_VALIDATION)
1281:.\Generated_Source\PSoC4/Bootloader.c **** 
1282:.\Generated_Source\PSoC4/Bootloader.c ****                             if(0u == clearedMetaData)
1283:.\Generated_Source\PSoC4/Bootloader.c ****                             {
1284:.\Generated_Source\PSoC4/Bootloader.c ****                                 /* Metadata section must be filled with zeros */
1285:.\Generated_Source\PSoC4/Bootloader.c **** 
1286:.\Generated_Source\PSoC4/Bootloader.c ****                                 uint8 erase[Bootloader_FROW_SIZE];
1287:.\Generated_Source\PSoC4/Bootloader.c ****                                 uint8 Bootloader_notActiveApp;
1288:.\Generated_Source\PSoC4/Bootloader.c **** 
1289:.\Generated_Source\PSoC4/Bootloader.c **** 
1290:.\Generated_Source\PSoC4/Bootloader.c ****                                 #if(CY_PSOC3)
1291:.\Generated_Source\PSoC4/Bootloader.c ****                                     (void) memset(erase, (char8) 0, (int16) Bootloader_FROW_SIZE);
1292:.\Generated_Source\PSoC4/Bootloader.c ****                                 #else
1293:.\Generated_Source\PSoC4/Bootloader.c ****                                     (void) memset(erase, 0, Bootloader_FROW_SIZE);
1294:.\Generated_Source\PSoC4/Bootloader.c ****                                 #endif  /* (CY_PSOC3) */
1295:.\Generated_Source\PSoC4/Bootloader.c **** 
1296:.\Generated_Source\PSoC4/Bootloader.c **** 
1297:.\Generated_Source\PSoC4/Bootloader.c ****                                 #if(0u != Bootloader_DUAL_APP_BOOTLOADER)
1298:.\Generated_Source\PSoC4/Bootloader.c ****                                     if (Bootloader_MD_BTLDB_ACTIVE_0 == Bootloader_activeApp)
1299:.\Generated_Source\PSoC4/Bootloader.c ****                                     {
1300:.\Generated_Source\PSoC4/Bootloader.c ****                                         Bootloader_notActiveApp = Bootloader_MD_BTLDB_ACTIVE_1;
1301:.\Generated_Source\PSoC4/Bootloader.c ****                                     }
1302:.\Generated_Source\PSoC4/Bootloader.c ****                                     else
1303:.\Generated_Source\PSoC4/Bootloader.c ****                                     {
1304:.\Generated_Source\PSoC4/Bootloader.c ****                                         Bootloader_notActiveApp = Bootloader_MD_BTLDB_ACTIVE_0;
1305:.\Generated_Source\PSoC4/Bootloader.c ****                                     }
1306:.\Generated_Source\PSoC4/Bootloader.c ****                                 #else
1307:.\Generated_Source\PSoC4/Bootloader.c ****                                     Bootloader_notActiveApp = Bootloader_MD_BTLDB_ACTIVE_0;
1308:.\Generated_Source\PSoC4/Bootloader.c ****                                 #endif /* (0u != Bootloader_DUAL_APP_BOOTLOADER) */
1309:.\Generated_Source\PSoC4/Bootloader.c **** 
1310:.\Generated_Source\PSoC4/Bootloader.c **** 
1311:.\Generated_Source\PSoC4/Bootloader.c ****                                 #if(CY_PSOC4)
1312:.\Generated_Source\PSoC4/Bootloader.c ****                                     (void) CySysFlashWriteRow(
1313:.\Generated_Source\PSoC4/Bootloader.c ****                                             Bootloader_MD_ROW_NUM(Bootloader_notActiveApp),
ARM GAS  C:\Users\PC69\AppData\Local\Temp\cchFQXNr.s 			page 26


1314:.\Generated_Source\PSoC4/Bootloader.c ****                                             erase);
1315:.\Generated_Source\PSoC4/Bootloader.c ****                                 #else
1316:.\Generated_Source\PSoC4/Bootloader.c ****                                     (void) CyWriteRowFull(
1317:.\Generated_Source\PSoC4/Bootloader.c ****                                             (uint8)  Bootloader_MD_FLASH_ARRAY_NUM,
1318:.\Generated_Source\PSoC4/Bootloader.c ****                                             (uint16) Bootloader_MD_ROW_NUM(Bootloader_notActiveApp)
1319:.\Generated_Source\PSoC4/Bootloader.c ****                                             erase,
1320:.\Generated_Source\PSoC4/Bootloader.c ****                                             Bootloader_FROW_SIZE);
1321:.\Generated_Source\PSoC4/Bootloader.c ****                                 #endif  /* (CY_PSOC4) */
1322:.\Generated_Source\PSoC4/Bootloader.c **** 
1323:.\Generated_Source\PSoC4/Bootloader.c ****                                 /* PSoC 5: Do not care about flushing the cache as flash row has be
1324:.\Generated_Source\PSoC4/Bootloader.c **** 
1325:.\Generated_Source\PSoC4/Bootloader.c ****                                 /* Set up flag that metadata was cleared */
1326:.\Generated_Source\PSoC4/Bootloader.c ****                                 clearedMetaData = 1u;
1327:.\Generated_Source\PSoC4/Bootloader.c ****                             }
1328:.\Generated_Source\PSoC4/Bootloader.c **** 
1329:.\Generated_Source\PSoC4/Bootloader.c ****                         #endif  /* (0u != Bootloader_FAST_APP_VALIDATION) */
1330:.\Generated_Source\PSoC4/Bootloader.c **** 
1331:.\Generated_Source\PSoC4/Bootloader.c **** 
1332:.\Generated_Source\PSoC4/Bootloader.c ****                         #if(!CY_PSOC4)
1333:.\Generated_Source\PSoC4/Bootloader.c ****                             }   /* (btldrData <= Bootloader_LAST_FLASH_ARRAYID) */
1334:.\Generated_Source\PSoC4/Bootloader.c ****                         #endif  /* (!CY_PSOC4) */
1335:.\Generated_Source\PSoC4/Bootloader.c **** 
1336:.\Generated_Source\PSoC4/Bootloader.c **** 
1337:.\Generated_Source\PSoC4/Bootloader.c ****                         #if(CY_PSOC4)
1338:.\Generated_Source\PSoC4/Bootloader.c ****                             ackCode = (CYRET_SUCCESS != CySysFlashWriteRow((uint32) row, dataBuffer
1339:.\Generated_Source\PSoC4/Bootloader.c ****                                 ? Bootloader_ERR_ROW \
1340:.\Generated_Source\PSoC4/Bootloader.c ****                                 : CYRET_SUCCESS;
1341:.\Generated_Source\PSoC4/Bootloader.c ****                         #else
1342:.\Generated_Source\PSoC4/Bootloader.c ****                             ackCode = (CYRET_SUCCESS != CyWriteRowFull(btldrData, dataOffset, dataB
1343:.\Generated_Source\PSoC4/Bootloader.c ****                                 ? Bootloader_ERR_ROW \
1344:.\Generated_Source\PSoC4/Bootloader.c ****                                 : CYRET_SUCCESS;
1345:.\Generated_Source\PSoC4/Bootloader.c ****                         #endif  /* (CY_PSOC4) */
1346:.\Generated_Source\PSoC4/Bootloader.c **** 
1347:.\Generated_Source\PSoC4/Bootloader.c **** 
1348:.\Generated_Source\PSoC4/Bootloader.c ****                         #if(CY_PSOC5)
1349:.\Generated_Source\PSoC4/Bootloader.c ****                             /**********************************************************************
1350:.\Generated_Source\PSoC4/Bootloader.c ****                             * When writing Flash, data in the instruction cache can become stale.
1351:.\Generated_Source\PSoC4/Bootloader.c ****                             * Therefore, the cache data does not correlate to the data just written
1352:.\Generated_Source\PSoC4/Bootloader.c ****                             * Flash. A call to CyFlushCache() is required to invalidate the data in
1353:.\Generated_Source\PSoC4/Bootloader.c ****                             * cache and force fresh information to be loaded from Flash.
1354:.\Generated_Source\PSoC4/Bootloader.c ****                             ***********************************************************************
1355:.\Generated_Source\PSoC4/Bootloader.c ****                             CyFlushCache();
1356:.\Generated_Source\PSoC4/Bootloader.c ****                         #endif /* (CY_PSOC5) */
1357:.\Generated_Source\PSoC4/Bootloader.c **** 
1358:.\Generated_Source\PSoC4/Bootloader.c ****                     }
1359:.\Generated_Source\PSoC4/Bootloader.c ****                     else
1360:.\Generated_Source\PSoC4/Bootloader.c ****                     {
1361:.\Generated_Source\PSoC4/Bootloader.c ****                         ackCode = Bootloader_ERR_LENGTH;
1362:.\Generated_Source\PSoC4/Bootloader.c ****                     }
1363:.\Generated_Source\PSoC4/Bootloader.c **** 
1364:.\Generated_Source\PSoC4/Bootloader.c ****                     dataOffset = 0u;
1365:.\Generated_Source\PSoC4/Bootloader.c ****                 }
1366:.\Generated_Source\PSoC4/Bootloader.c ****                 break;
1367:.\Generated_Source\PSoC4/Bootloader.c **** 
1368:.\Generated_Source\PSoC4/Bootloader.c **** 
1369:.\Generated_Source\PSoC4/Bootloader.c ****             /***************************************************************************
1370:.\Generated_Source\PSoC4/Bootloader.c ****             *   Sync bootloader
ARM GAS  C:\Users\PC69\AppData\Local\Temp\cchFQXNr.s 			page 27


1371:.\Generated_Source\PSoC4/Bootloader.c ****             ***************************************************************************/
1372:.\Generated_Source\PSoC4/Bootloader.c ****             #if(0u != Bootloader_CMD_SYNC_BOOTLOADER_AVAIL)
1373:.\Generated_Source\PSoC4/Bootloader.c **** 
1374:.\Generated_Source\PSoC4/Bootloader.c ****             case Bootloader_COMMAND_SYNC:
1375:.\Generated_Source\PSoC4/Bootloader.c **** 
1376:.\Generated_Source\PSoC4/Bootloader.c ****                 if(Bootloader_COMMUNICATION_STATE_ACTIVE == communicationState)
1377:.\Generated_Source\PSoC4/Bootloader.c ****                 {
1378:.\Generated_Source\PSoC4/Bootloader.c ****                     /* If something failed the host would send this command to reset the bootloader
1379:.\Generated_Source\PSoC4/Bootloader.c ****                     dataOffset = 0u;
1380:.\Generated_Source\PSoC4/Bootloader.c **** 
1381:.\Generated_Source\PSoC4/Bootloader.c ****                     /* Don't acknowledge the packet, just get ready to accept the next one */
1382:.\Generated_Source\PSoC4/Bootloader.c ****                     continue;
1383:.\Generated_Source\PSoC4/Bootloader.c ****                 }
1384:.\Generated_Source\PSoC4/Bootloader.c ****                 break;
1385:.\Generated_Source\PSoC4/Bootloader.c **** 
1386:.\Generated_Source\PSoC4/Bootloader.c ****             #endif  /* (0u != Bootloader_CMD_SYNC_BOOTLOADER_AVAIL) */
1387:.\Generated_Source\PSoC4/Bootloader.c **** 
1388:.\Generated_Source\PSoC4/Bootloader.c **** 
1389:.\Generated_Source\PSoC4/Bootloader.c ****             /***************************************************************************
1390:.\Generated_Source\PSoC4/Bootloader.c ****             *   Set an active application
1391:.\Generated_Source\PSoC4/Bootloader.c ****             ***************************************************************************/
1392:.\Generated_Source\PSoC4/Bootloader.c ****             #if(0u != Bootloader_DUAL_APP_BOOTLOADER)
1393:.\Generated_Source\PSoC4/Bootloader.c **** 
1394:.\Generated_Source\PSoC4/Bootloader.c ****                 case Bootloader_COMMAND_APP_ACTIVE:
1395:.\Generated_Source\PSoC4/Bootloader.c **** 
1396:.\Generated_Source\PSoC4/Bootloader.c ****                     if((Bootloader_COMMUNICATION_STATE_ACTIVE == communicationState) && (pktSize ==
1397:.\Generated_Source\PSoC4/Bootloader.c ****                     {
1398:.\Generated_Source\PSoC4/Bootloader.c ****                         if(CYRET_SUCCESS == Bootloader_ValidateBootloadable(btldrData))
1399:.\Generated_Source\PSoC4/Bootloader.c ****                         {
1400:.\Generated_Source\PSoC4/Bootloader.c ****                             uint8 CYDATA idx;
1401:.\Generated_Source\PSoC4/Bootloader.c **** 
1402:.\Generated_Source\PSoC4/Bootloader.c ****                             for(idx = 0u; idx < Bootloader_MAX_NUM_OF_BTLDB; idx++)
1403:.\Generated_Source\PSoC4/Bootloader.c ****                             {
1404:.\Generated_Source\PSoC4/Bootloader.c ****                                 Bootloader_SetFlashByte((uint32) Bootloader_MD_BTLDB_ACTIVE_OFFSET(
1405:.\Generated_Source\PSoC4/Bootloader.c ****                                                               (uint8 )(idx == btldrData));
1406:.\Generated_Source\PSoC4/Bootloader.c ****                             }
1407:.\Generated_Source\PSoC4/Bootloader.c ****                             Bootloader_activeApp = btldrData;
1408:.\Generated_Source\PSoC4/Bootloader.c ****                             ackCode = CYRET_SUCCESS;
1409:.\Generated_Source\PSoC4/Bootloader.c ****                         }
1410:.\Generated_Source\PSoC4/Bootloader.c ****                         else
1411:.\Generated_Source\PSoC4/Bootloader.c ****                         {
1412:.\Generated_Source\PSoC4/Bootloader.c ****                             ackCode = Bootloader_ERR_APP;
1413:.\Generated_Source\PSoC4/Bootloader.c ****                         }
1414:.\Generated_Source\PSoC4/Bootloader.c ****                     }
1415:.\Generated_Source\PSoC4/Bootloader.c ****                     break;
1416:.\Generated_Source\PSoC4/Bootloader.c **** 
1417:.\Generated_Source\PSoC4/Bootloader.c ****             #endif  /* (0u != Bootloader_DUAL_APP_BOOTLOADER) */
1418:.\Generated_Source\PSoC4/Bootloader.c **** 
1419:.\Generated_Source\PSoC4/Bootloader.c **** 
1420:.\Generated_Source\PSoC4/Bootloader.c ****             /***************************************************************************
1421:.\Generated_Source\PSoC4/Bootloader.c ****             *   Send data
1422:.\Generated_Source\PSoC4/Bootloader.c ****             ***************************************************************************/
1423:.\Generated_Source\PSoC4/Bootloader.c ****             #if (0u != Bootloader_CMD_SEND_DATA_AVAIL)
1424:.\Generated_Source\PSoC4/Bootloader.c **** 
1425:.\Generated_Source\PSoC4/Bootloader.c ****                 case Bootloader_COMMAND_DATA:
1426:.\Generated_Source\PSoC4/Bootloader.c **** 
1427:.\Generated_Source\PSoC4/Bootloader.c ****                     if(Bootloader_COMMUNICATION_STATE_ACTIVE == communicationState)
ARM GAS  C:\Users\PC69\AppData\Local\Temp\cchFQXNr.s 			page 28


1428:.\Generated_Source\PSoC4/Bootloader.c ****                     {
1429:.\Generated_Source\PSoC4/Bootloader.c ****                         /*  Make sure that dataOffset is valid before copying the data */
1430:.\Generated_Source\PSoC4/Bootloader.c ****                         if((dataOffset + pktSize) <= Bootloader_SIZEOF_COMMAND_BUFFER)
1431:.\Generated_Source\PSoC4/Bootloader.c ****                         {
1432:.\Generated_Source\PSoC4/Bootloader.c ****                             ackCode = CYRET_SUCCESS;
1433:.\Generated_Source\PSoC4/Bootloader.c **** 
1434:.\Generated_Source\PSoC4/Bootloader.c ****                             #if(CY_PSOC3)
1435:.\Generated_Source\PSoC4/Bootloader.c ****                                 (void) memcpy(&dataBuffer[dataOffset],
1436:.\Generated_Source\PSoC4/Bootloader.c ****                                               &packetBuffer[Bootloader_DATA_ADDR],
1437:.\Generated_Source\PSoC4/Bootloader.c ****                                               ( int16 )pktSize);
1438:.\Generated_Source\PSoC4/Bootloader.c ****                             #else
1439:.\Generated_Source\PSoC4/Bootloader.c ****                                 (void) memcpy(&dataBuffer[dataOffset],
1440:.\Generated_Source\PSoC4/Bootloader.c ****                                               &packetBuffer[Bootloader_DATA_ADDR],
1441:.\Generated_Source\PSoC4/Bootloader.c ****                                               (uint32) pktSize);
1442:.\Generated_Source\PSoC4/Bootloader.c ****                             #endif  /* (CY_PSOC3) */
1443:.\Generated_Source\PSoC4/Bootloader.c **** 
1444:.\Generated_Source\PSoC4/Bootloader.c ****                             dataOffset += pktSize;
1445:.\Generated_Source\PSoC4/Bootloader.c ****                         }
1446:.\Generated_Source\PSoC4/Bootloader.c ****                         else
1447:.\Generated_Source\PSoC4/Bootloader.c ****                         {
1448:.\Generated_Source\PSoC4/Bootloader.c ****                             ackCode = Bootloader_ERR_LENGTH;
1449:.\Generated_Source\PSoC4/Bootloader.c ****                         }
1450:.\Generated_Source\PSoC4/Bootloader.c ****                     }
1451:.\Generated_Source\PSoC4/Bootloader.c **** 
1452:.\Generated_Source\PSoC4/Bootloader.c ****                     break;
1453:.\Generated_Source\PSoC4/Bootloader.c **** 
1454:.\Generated_Source\PSoC4/Bootloader.c ****             #endif  /* (0u != Bootloader_CMD_SEND_DATA_AVAIL) */
1455:.\Generated_Source\PSoC4/Bootloader.c **** 
1456:.\Generated_Source\PSoC4/Bootloader.c **** 
1457:.\Generated_Source\PSoC4/Bootloader.c ****             /***************************************************************************
1458:.\Generated_Source\PSoC4/Bootloader.c ****             *   Enter bootloader
1459:.\Generated_Source\PSoC4/Bootloader.c ****             ***************************************************************************/
1460:.\Generated_Source\PSoC4/Bootloader.c ****             case Bootloader_COMMAND_ENTER:
1461:.\Generated_Source\PSoC4/Bootloader.c **** 
1462:.\Generated_Source\PSoC4/Bootloader.c ****                 if(pktSize == 0u)
1463:.\Generated_Source\PSoC4/Bootloader.c ****                 {
1464:.\Generated_Source\PSoC4/Bootloader.c ****                     #if(CY_PSOC3)
1465:.\Generated_Source\PSoC4/Bootloader.c **** 
1466:.\Generated_Source\PSoC4/Bootloader.c ****                         Bootloader_ENTER CYDATA BtldrVersion =
1467:.\Generated_Source\PSoC4/Bootloader.c ****                             {CYSWAP_ENDIAN32(CYDEV_CHIP_JTAG_ID), CYDEV_CHIP_REV_EXPECT, Bootloader
1468:.\Generated_Source\PSoC4/Bootloader.c **** 
1469:.\Generated_Source\PSoC4/Bootloader.c ****                     #else
1470:.\Generated_Source\PSoC4/Bootloader.c **** 
1471:.\Generated_Source\PSoC4/Bootloader.c ****                         Bootloader_ENTER CYDATA BtldrVersion =
1472:.\Generated_Source\PSoC4/Bootloader.c ****                             {CYDEV_CHIP_JTAG_ID, CYDEV_CHIP_REV_EXPECT, Bootloader_VERSION};
1473:.\Generated_Source\PSoC4/Bootloader.c **** 
1474:.\Generated_Source\PSoC4/Bootloader.c ****                     #endif  /* (CY_PSOC3) */
1475:.\Generated_Source\PSoC4/Bootloader.c **** 
1476:.\Generated_Source\PSoC4/Bootloader.c ****                     communicationState = Bootloader_COMMUNICATION_STATE_ACTIVE;
1477:.\Generated_Source\PSoC4/Bootloader.c **** 
1478:.\Generated_Source\PSoC4/Bootloader.c ****                     rspSize = sizeof(Bootloader_ENTER);
1479:.\Generated_Source\PSoC4/Bootloader.c **** 
1480:.\Generated_Source\PSoC4/Bootloader.c ****                     #if(CY_PSOC3)
1481:.\Generated_Source\PSoC4/Bootloader.c ****                         (void) memcpy(&packetBuffer[Bootloader_DATA_ADDR],
1482:.\Generated_Source\PSoC4/Bootloader.c ****                                       &BtldrVersion,
1483:.\Generated_Source\PSoC4/Bootloader.c ****                                       ( int16 )rspSize);
1484:.\Generated_Source\PSoC4/Bootloader.c ****                     #else
ARM GAS  C:\Users\PC69\AppData\Local\Temp\cchFQXNr.s 			page 29


1485:.\Generated_Source\PSoC4/Bootloader.c ****                         (void) memcpy(&packetBuffer[Bootloader_DATA_ADDR],
1486:.\Generated_Source\PSoC4/Bootloader.c ****                                       &BtldrVersion,
1487:.\Generated_Source\PSoC4/Bootloader.c ****                                       (uint32) rspSize);
1488:.\Generated_Source\PSoC4/Bootloader.c ****                     #endif  /* (CY_PSOC3) */
1489:.\Generated_Source\PSoC4/Bootloader.c **** 
1490:.\Generated_Source\PSoC4/Bootloader.c ****                     ackCode = CYRET_SUCCESS;
1491:.\Generated_Source\PSoC4/Bootloader.c ****                 }
1492:.\Generated_Source\PSoC4/Bootloader.c ****                 break;
1493:.\Generated_Source\PSoC4/Bootloader.c **** 
1494:.\Generated_Source\PSoC4/Bootloader.c **** 
1495:.\Generated_Source\PSoC4/Bootloader.c ****             /***************************************************************************
1496:.\Generated_Source\PSoC4/Bootloader.c ****             *   Verify row
1497:.\Generated_Source\PSoC4/Bootloader.c ****             ***************************************************************************/
1498:.\Generated_Source\PSoC4/Bootloader.c ****             #if (0u != Bootloader_CMD_VERIFY_ROW_AVAIL)
1499:.\Generated_Source\PSoC4/Bootloader.c **** 
1500:.\Generated_Source\PSoC4/Bootloader.c ****             case Bootloader_COMMAND_VERIFY:
1501:.\Generated_Source\PSoC4/Bootloader.c **** 
1502:.\Generated_Source\PSoC4/Bootloader.c ****                 if((Bootloader_COMMUNICATION_STATE_ACTIVE == communicationState) && (pktSize == 3u)
1503:.\Generated_Source\PSoC4/Bootloader.c ****                 {
1504:.\Generated_Source\PSoC4/Bootloader.c ****                     /* Get FLASH/EEPROM row number */
1505:.\Generated_Source\PSoC4/Bootloader.c ****                     uint16 CYDATA rowNum = ((uint16)((uint16)packetBuffer[Bootloader_DATA_ADDR + 2u
1506:.\Generated_Source\PSoC4/Bootloader.c ****                                                     packetBuffer[Bootloader_DATA_ADDR + 1u];
1507:.\Generated_Source\PSoC4/Bootloader.c **** 
1508:.\Generated_Source\PSoC4/Bootloader.c ****                     #if(!CY_PSOC4)
1509:.\Generated_Source\PSoC4/Bootloader.c **** 
1510:.\Generated_Source\PSoC4/Bootloader.c ****                         uint32 CYDATA rowAddr;
1511:.\Generated_Source\PSoC4/Bootloader.c ****                         uint8 CYDATA checksum;
1512:.\Generated_Source\PSoC4/Bootloader.c **** 
1513:.\Generated_Source\PSoC4/Bootloader.c ****                         if((btldrData >= Bootloader_FIRST_EE_ARRAYID) &&
1514:.\Generated_Source\PSoC4/Bootloader.c ****                            (btldrData <= Bootloader_LAST_EE_ARRAYID))
1515:.\Generated_Source\PSoC4/Bootloader.c ****                         {
1516:.\Generated_Source\PSoC4/Bootloader.c ****                             /* EEPROM */
1517:.\Generated_Source\PSoC4/Bootloader.c ****                             /* Both PSoC 3 and PSoC 5LP architectures have one EEPROM array. */
1518:.\Generated_Source\PSoC4/Bootloader.c ****                             rowAddr = (uint32)rowNum * CYDEV_EEPROM_ROW_SIZE;
1519:.\Generated_Source\PSoC4/Bootloader.c **** 
1520:.\Generated_Source\PSoC4/Bootloader.c ****                             checksum = Bootloader_Calc8BitSum(CY_EEPROM_BASE, rowAddr, CYDEV_EEPROM
1521:.\Generated_Source\PSoC4/Bootloader.c ****                         }
1522:.\Generated_Source\PSoC4/Bootloader.c ****                         else
1523:.\Generated_Source\PSoC4/Bootloader.c ****                         {
1524:.\Generated_Source\PSoC4/Bootloader.c ****                             /* FLASH */
1525:.\Generated_Source\PSoC4/Bootloader.c ****                             rowAddr = ((uint32)btldrData * CYDEV_FLS_SECTOR_SIZE)
1526:.\Generated_Source\PSoC4/Bootloader.c ****                                        + ((uint32)rowNum * CYDEV_FLS_ROW_SIZE);
1527:.\Generated_Source\PSoC4/Bootloader.c **** 
1528:.\Generated_Source\PSoC4/Bootloader.c ****                             checksum = Bootloader_Calc8BitSum(CY_FLASH_BASE, rowAddr, CYDEV_FLS_ROW
1529:.\Generated_Source\PSoC4/Bootloader.c ****                         }
1530:.\Generated_Source\PSoC4/Bootloader.c **** 
1531:.\Generated_Source\PSoC4/Bootloader.c ****                     #else
1532:.\Generated_Source\PSoC4/Bootloader.c **** 
1533:.\Generated_Source\PSoC4/Bootloader.c ****                         uint32 CYDATA rowAddr = ((uint32)btldrData * CYDEV_FLS_SECTOR_SIZE)
1534:.\Generated_Source\PSoC4/Bootloader.c ****                                             + ((uint32)rowNum * CYDEV_FLS_ROW_SIZE);
1535:.\Generated_Source\PSoC4/Bootloader.c **** 
1536:.\Generated_Source\PSoC4/Bootloader.c ****                         uint8 CYDATA checksum = Bootloader_Calc8BitSum(CY_FLASH_BASE,
1537:.\Generated_Source\PSoC4/Bootloader.c ****                                                                              rowAddr,
1538:.\Generated_Source\PSoC4/Bootloader.c ****                                                                              CYDEV_FLS_ROW_SIZE);
1539:.\Generated_Source\PSoC4/Bootloader.c **** 
1540:.\Generated_Source\PSoC4/Bootloader.c ****                     #endif  /* (!CY_PSOC4) */
1541:.\Generated_Source\PSoC4/Bootloader.c **** 
ARM GAS  C:\Users\PC69\AppData\Local\Temp\cchFQXNr.s 			page 30


1542:.\Generated_Source\PSoC4/Bootloader.c **** 
1543:.\Generated_Source\PSoC4/Bootloader.c ****                     /* Calculate checksum on data from ECC */
1544:.\Generated_Source\PSoC4/Bootloader.c ****                     #if(!CY_PSOC4) && (CYDEV_ECC_ENABLE == 0u)
1545:.\Generated_Source\PSoC4/Bootloader.c **** 
1546:.\Generated_Source\PSoC4/Bootloader.c ****                         if(btldrData <= Bootloader_LAST_FLASH_ARRAYID)
1547:.\Generated_Source\PSoC4/Bootloader.c ****                         {
1548:.\Generated_Source\PSoC4/Bootloader.c ****                             uint16 CYDATA tmpIndex;
1549:.\Generated_Source\PSoC4/Bootloader.c **** 
1550:.\Generated_Source\PSoC4/Bootloader.c ****                             rowAddr = CYDEV_ECC_BASE + ((uint32)btldrData * (CYDEV_FLS_SECTOR_SIZE 
1551:.\Generated_Source\PSoC4/Bootloader.c ****                                         + ((uint32)rowNum * CYDEV_ECC_ROW_SIZE);
1552:.\Generated_Source\PSoC4/Bootloader.c **** 
1553:.\Generated_Source\PSoC4/Bootloader.c ****                             for(tmpIndex = 0u; tmpIndex < CYDEV_ECC_ROW_SIZE; tmpIndex++)
1554:.\Generated_Source\PSoC4/Bootloader.c ****                             {
1555:.\Generated_Source\PSoC4/Bootloader.c ****                                 checksum += CY_GET_XTND_REG8((uint8 CYFAR *)(rowAddr + tmpIndex));
1556:.\Generated_Source\PSoC4/Bootloader.c ****                             }
1557:.\Generated_Source\PSoC4/Bootloader.c ****                         }
1558:.\Generated_Source\PSoC4/Bootloader.c **** 
1559:.\Generated_Source\PSoC4/Bootloader.c ****                     #endif  /* (!CY_PSOC4) && (CYDEV_ECC_ENABLE == 0u) */
1560:.\Generated_Source\PSoC4/Bootloader.c **** 
1561:.\Generated_Source\PSoC4/Bootloader.c **** 
1562:.\Generated_Source\PSoC4/Bootloader.c ****                     /******************************************************************************
1563:.\Generated_Source\PSoC4/Bootloader.c ****                     * App Verified & App Active are information that is updated in Flash at runtime
1564:.\Generated_Source\PSoC4/Bootloader.c ****                     * Remove these items from the checksum to allow the host to verify everything i
1565:.\Generated_Source\PSoC4/Bootloader.c ****                     * correct.
1566:.\Generated_Source\PSoC4/Bootloader.c ****                      ******************************************************************************
1567:.\Generated_Source\PSoC4/Bootloader.c ****                     if((Bootloader_MD_FLASH_ARRAY_NUM == btldrData) &&
1568:.\Generated_Source\PSoC4/Bootloader.c ****                        (Bootloader_CONTAIN_METADATA(rowNum)))
1569:.\Generated_Source\PSoC4/Bootloader.c ****                     {
1570:.\Generated_Source\PSoC4/Bootloader.c **** 
1571:.\Generated_Source\PSoC4/Bootloader.c ****                         checksum -= (uint8)Bootloader_GetMetadata(Bootloader_GET_BTLDB_ACTIVE,
1572:.\Generated_Source\PSoC4/Bootloader.c ****                                                                  Bootloader_GET_APP_ID(rowNum));
1573:.\Generated_Source\PSoC4/Bootloader.c **** 
1574:.\Generated_Source\PSoC4/Bootloader.c ****                         checksum -= (uint8)Bootloader_GetMetadata(Bootloader_GET_BTLDB_STATUS,
1575:.\Generated_Source\PSoC4/Bootloader.c ****                                                                  Bootloader_GET_APP_ID(rowNum));
1576:.\Generated_Source\PSoC4/Bootloader.c ****                     }
1577:.\Generated_Source\PSoC4/Bootloader.c **** 
1578:.\Generated_Source\PSoC4/Bootloader.c ****                     packetBuffer[Bootloader_DATA_ADDR] = (uint8)1u + (uint8)(~checksum);
1579:.\Generated_Source\PSoC4/Bootloader.c ****                     ackCode = CYRET_SUCCESS;
1580:.\Generated_Source\PSoC4/Bootloader.c ****                     rspSize = 1u;
1581:.\Generated_Source\PSoC4/Bootloader.c ****                 }
1582:.\Generated_Source\PSoC4/Bootloader.c ****                 break;
1583:.\Generated_Source\PSoC4/Bootloader.c **** 
1584:.\Generated_Source\PSoC4/Bootloader.c ****             #endif /* (0u != Bootloader_CMD_VERIFY_ROW_AVAIL) */
1585:.\Generated_Source\PSoC4/Bootloader.c **** 
1586:.\Generated_Source\PSoC4/Bootloader.c **** 
1587:.\Generated_Source\PSoC4/Bootloader.c ****             /***************************************************************************
1588:.\Generated_Source\PSoC4/Bootloader.c ****             *   Exit bootloader
1589:.\Generated_Source\PSoC4/Bootloader.c ****             ***************************************************************************/
1590:.\Generated_Source\PSoC4/Bootloader.c ****             case Bootloader_COMMAND_EXIT:
1591:.\Generated_Source\PSoC4/Bootloader.c **** 
1592:.\Generated_Source\PSoC4/Bootloader.c ****                 if(CYRET_SUCCESS == Bootloader_ValidateBootloadable(Bootloader_activeApp))
1593:.\Generated_Source\PSoC4/Bootloader.c ****                 {
1594:.\Generated_Source\PSoC4/Bootloader.c ****                     Bootloader_SET_RUN_TYPE(Bootloader_SCHEDULE_BTLDB);
1595:.\Generated_Source\PSoC4/Bootloader.c ****                 }
1596:.\Generated_Source\PSoC4/Bootloader.c **** 
1597:.\Generated_Source\PSoC4/Bootloader.c ****                 CySoftwareReset();
1598:.\Generated_Source\PSoC4/Bootloader.c **** 
ARM GAS  C:\Users\PC69\AppData\Local\Temp\cchFQXNr.s 			page 31


1599:.\Generated_Source\PSoC4/Bootloader.c ****                 /* Will never get here */
1600:.\Generated_Source\PSoC4/Bootloader.c ****                 break;
1601:.\Generated_Source\PSoC4/Bootloader.c **** 
1602:.\Generated_Source\PSoC4/Bootloader.c **** 
1603:.\Generated_Source\PSoC4/Bootloader.c ****             /***************************************************************************
1604:.\Generated_Source\PSoC4/Bootloader.c ****             *   Unsupported command
1605:.\Generated_Source\PSoC4/Bootloader.c ****             ***************************************************************************/
1606:.\Generated_Source\PSoC4/Bootloader.c ****             default:
1607:.\Generated_Source\PSoC4/Bootloader.c ****                 ackCode = Bootloader_ERR_CMD;
1608:.\Generated_Source\PSoC4/Bootloader.c ****                 break;
1609:.\Generated_Source\PSoC4/Bootloader.c ****             }
1610:.\Generated_Source\PSoC4/Bootloader.c ****         }
1611:.\Generated_Source\PSoC4/Bootloader.c **** 
1612:.\Generated_Source\PSoC4/Bootloader.c ****         /* Reply with acknowledge or not acknowledge packet */
1613:.\Generated_Source\PSoC4/Bootloader.c ****         (void) Bootloader_WritePacket(ackCode, packetBuffer, rspSize);
1614:.\Generated_Source\PSoC4/Bootloader.c **** 
1615:.\Generated_Source\PSoC4/Bootloader.c ****     } while ((0u == timeOut) || (Bootloader_COMMUNICATION_STATE_ACTIVE == communicationState));
1616:.\Generated_Source\PSoC4/Bootloader.c **** }
1617:.\Generated_Source\PSoC4/Bootloader.c **** 
1618:.\Generated_Source\PSoC4/Bootloader.c **** 
1619:.\Generated_Source\PSoC4/Bootloader.c **** /*******************************************************************************
1620:.\Generated_Source\PSoC4/Bootloader.c **** * Function Name: Bootloader_WritePacket
1621:.\Generated_Source\PSoC4/Bootloader.c **** ********************************************************************************
1622:.\Generated_Source\PSoC4/Bootloader.c **** *
1623:.\Generated_Source\PSoC4/Bootloader.c **** * Summary:
1624:.\Generated_Source\PSoC4/Bootloader.c **** *  Creates a bootloader response packet and transmits it back to the bootloader
1625:.\Generated_Source\PSoC4/Bootloader.c **** *  host application over the already established communications protocol.
1626:.\Generated_Source\PSoC4/Bootloader.c **** *
1627:.\Generated_Source\PSoC4/Bootloader.c **** * Parameters:
1628:.\Generated_Source\PSoC4/Bootloader.c **** *  status:
1629:.\Generated_Source\PSoC4/Bootloader.c **** *      The status code to pass back as the second byte of the packet
1630:.\Generated_Source\PSoC4/Bootloader.c **** *  buffer:
1631:.\Generated_Source\PSoC4/Bootloader.c **** *      The buffer containing the data portion of the packet
1632:.\Generated_Source\PSoC4/Bootloader.c **** *  size:
1633:.\Generated_Source\PSoC4/Bootloader.c **** *      The number of bytes contained within the buffer to pass back
1634:.\Generated_Source\PSoC4/Bootloader.c **** *
1635:.\Generated_Source\PSoC4/Bootloader.c **** * Return:
1636:.\Generated_Source\PSoC4/Bootloader.c **** *   CYRET_SUCCESS if successful. Any other non-zero value if failure occurred.
1637:.\Generated_Source\PSoC4/Bootloader.c **** *
1638:.\Generated_Source\PSoC4/Bootloader.c **** *******************************************************************************/
1639:.\Generated_Source\PSoC4/Bootloader.c **** static cystatus Bootloader_WritePacket(uint8 status, uint8 buffer[], uint16 size) CYSMALL \
1640:.\Generated_Source\PSoC4/Bootloader.c ****                                             
1641:.\Generated_Source\PSoC4/Bootloader.c **** {
1642:.\Generated_Source\PSoC4/Bootloader.c ****     uint16 CYDATA checksum;
1643:.\Generated_Source\PSoC4/Bootloader.c **** 
1644:.\Generated_Source\PSoC4/Bootloader.c ****     /* Start of packet. */
1645:.\Generated_Source\PSoC4/Bootloader.c ****     buffer[Bootloader_SOP_ADDR]      = Bootloader_SOP;
1646:.\Generated_Source\PSoC4/Bootloader.c ****     buffer[Bootloader_CMD_ADDR]      = status;
1647:.\Generated_Source\PSoC4/Bootloader.c ****     buffer[Bootloader_SIZE_ADDR]     = LO8(size);
1648:.\Generated_Source\PSoC4/Bootloader.c ****     buffer[Bootloader_SIZE_ADDR + 1u] = HI8(size);
1649:.\Generated_Source\PSoC4/Bootloader.c **** 
1650:.\Generated_Source\PSoC4/Bootloader.c ****     /* Compute checksum. */
1651:.\Generated_Source\PSoC4/Bootloader.c ****     checksum = Bootloader_CalcPacketChecksum(buffer, size + Bootloader_DATA_ADDR);
1652:.\Generated_Source\PSoC4/Bootloader.c **** 
1653:.\Generated_Source\PSoC4/Bootloader.c ****     buffer[Bootloader_CHK_ADDR(size)]     = LO8(checksum);
1654:.\Generated_Source\PSoC4/Bootloader.c ****     buffer[Bootloader_CHK_ADDR(1u + size)] = HI8(checksum);
1655:.\Generated_Source\PSoC4/Bootloader.c ****     buffer[Bootloader_EOP_ADDR(size)]     = Bootloader_EOP;
ARM GAS  C:\Users\PC69\AppData\Local\Temp\cchFQXNr.s 			page 32


1656:.\Generated_Source\PSoC4/Bootloader.c **** 
1657:.\Generated_Source\PSoC4/Bootloader.c ****     /* Start packet transmit. */
1658:.\Generated_Source\PSoC4/Bootloader.c ****     return(CyBtldrCommWrite(buffer, size + Bootloader_MIN_PKT_SIZE, &size, 150u));
1659:.\Generated_Source\PSoC4/Bootloader.c **** }
1660:.\Generated_Source\PSoC4/Bootloader.c **** 
1661:.\Generated_Source\PSoC4/Bootloader.c **** 
1662:.\Generated_Source\PSoC4/Bootloader.c **** /*******************************************************************************
1663:.\Generated_Source\PSoC4/Bootloader.c **** * Function Name: Bootloader_SetFlashByte
1664:.\Generated_Source\PSoC4/Bootloader.c **** ********************************************************************************
1665:.\Generated_Source\PSoC4/Bootloader.c **** *
1666:.\Generated_Source\PSoC4/Bootloader.c **** * Summary:
1667:.\Generated_Source\PSoC4/Bootloader.c **** *  Writes a byte to the specified Flash memory location.
1668:.\Generated_Source\PSoC4/Bootloader.c **** *
1669:.\Generated_Source\PSoC4/Bootloader.c **** * Parameters:
1670:.\Generated_Source\PSoC4/Bootloader.c **** *  address:
1671:.\Generated_Source\PSoC4/Bootloader.c **** *      The address in Flash memory where data will be written
1672:.\Generated_Source\PSoC4/Bootloader.c **** *
1673:.\Generated_Source\PSoC4/Bootloader.c **** *  runType:
1674:.\Generated_Source\PSoC4/Bootloader.c **** *      Byte to be written
1675:.\Generated_Source\PSoC4/Bootloader.c **** *
1676:.\Generated_Source\PSoC4/Bootloader.c **** * Return:
1677:.\Generated_Source\PSoC4/Bootloader.c **** *  None
1678:.\Generated_Source\PSoC4/Bootloader.c **** *
1679:.\Generated_Source\PSoC4/Bootloader.c **** *******************************************************************************/
1680:.\Generated_Source\PSoC4/Bootloader.c **** void Bootloader_SetFlashByte(uint32 address, uint8 runType) 
1681:.\Generated_Source\PSoC4/Bootloader.c **** {
 104              		.loc 1 1681 0
 105              		.cfi_startproc
 106              	.LVL11:
 107 0000 F0B5     		push	{r4, r5, r6, r7, lr}
 108              		.cfi_def_cfa_offset 20
 109              		.cfi_offset 4, -20
 110              		.cfi_offset 5, -16
 111              		.cfi_offset 6, -12
 112              		.cfi_offset 7, -8
 113              		.cfi_offset 14, -4
1682:.\Generated_Source\PSoC4/Bootloader.c ****     uint32 flsAddr = address - CYDEV_FLASH_BASE;
1683:.\Generated_Source\PSoC4/Bootloader.c ****     uint8  rowData[CYDEV_FLS_ROW_SIZE];
1684:.\Generated_Source\PSoC4/Bootloader.c **** 
1685:.\Generated_Source\PSoC4/Bootloader.c ****     #if !(CY_PSOC4)
1686:.\Generated_Source\PSoC4/Bootloader.c ****         uint8 arrayId = ( uint8 )(flsAddr / CYDEV_FLS_SECTOR_SIZE);
1687:.\Generated_Source\PSoC4/Bootloader.c ****     #endif  /* !(CY_PSOC4) */
1688:.\Generated_Source\PSoC4/Bootloader.c **** 
1689:.\Generated_Source\PSoC4/Bootloader.c ****     #if (CY_PSOC4)
1690:.\Generated_Source\PSoC4/Bootloader.c ****         uint16 rowNum = ( uint16 )(flsAddr / CYDEV_FLS_ROW_SIZE);
1691:.\Generated_Source\PSoC4/Bootloader.c ****     #else
1692:.\Generated_Source\PSoC4/Bootloader.c ****         uint16 rowNum = ( uint16 )((flsAddr % CYDEV_FLS_SECTOR_SIZE) / CYDEV_FLS_ROW_SIZE);
1693:.\Generated_Source\PSoC4/Bootloader.c ****     #endif  /* (CY_PSOC4) */
1694:.\Generated_Source\PSoC4/Bootloader.c **** 
1695:.\Generated_Source\PSoC4/Bootloader.c ****     uint32 baseAddr = address - (address % CYDEV_FLS_ROW_SIZE);
 114              		.loc 1 1695 0
 115 0002 7F23     		mov	r3, #127
 116 0004 051C     		mov	r5, r0
 117 0006 9D43     		bic	r5, r3
 118 0008 2E1C     		mov	r6, r5
 119 000a 2B1C     		mov	r3, r5
1681:.\Generated_Source\PSoC4/Bootloader.c ****     uint32 flsAddr = address - CYDEV_FLASH_BASE;
ARM GAS  C:\Users\PC69\AppData\Local\Temp\cchFQXNr.s 			page 33


 120              		.loc 1 1681 0
 121 000c A3B0     		sub	sp, sp, #140
 122              		.cfi_def_cfa_offset 160
1681:.\Generated_Source\PSoC4/Bootloader.c ****     uint32 flsAddr = address - CYDEV_FLASH_BASE;
 123              		.loc 1 1681 0
 124 000e 0191     		str	r1, [sp, #4]
1690:.\Generated_Source\PSoC4/Bootloader.c ****     #else
 125              		.loc 1 1690 0
 126 0010 C409     		lsr	r4, r0, #7
 127              	.LVL12:
 128 0012 8036     		add	r6, r6, #128
 129              	.LVL13:
 130              	.L12:
1696:.\Generated_Source\PSoC4/Bootloader.c ****     uint16 idx;
1697:.\Generated_Source\PSoC4/Bootloader.c **** 
1698:.\Generated_Source\PSoC4/Bootloader.c ****     for(idx = 0u; idx < CYDEV_FLS_ROW_SIZE; idx++)
1699:.\Generated_Source\PSoC4/Bootloader.c ****     {
1700:.\Generated_Source\PSoC4/Bootloader.c ****         rowData[idx] = Bootloader_GET_CODE_BYTE(baseAddr + idx);
 131              		.loc 1 1700 0 discriminator 3
 132 0014 1A78     		ldrb	r2, [r3]
 133 0016 9446     		mov	ip, r2
 134 0018 6146     		mov	r1, ip
 135 001a 02AA     		add	r2, sp, #8
 136 001c 571B     		sub	r7, r2, r5
 137 001e F954     		strb	r1, [r7, r3]
 138              	.LVL14:
 139 0020 0133     		add	r3, r3, #1
 140              	.LVL15:
1698:.\Generated_Source\PSoC4/Bootloader.c ****     {
 141              		.loc 1 1698 0 discriminator 3
 142 0022 B342     		cmp	r3, r6
 143 0024 F6D1     		bne	.L12
1701:.\Generated_Source\PSoC4/Bootloader.c ****     }
1702:.\Generated_Source\PSoC4/Bootloader.c **** 
1703:.\Generated_Source\PSoC4/Bootloader.c ****     rowData[address % CYDEV_FLS_ROW_SIZE] = runType;
 144              		.loc 1 1703 0
 145 0026 7F23     		mov	r3, #127
 146 0028 1840     		and	r0, r3
 147              	.LVL16:
 148 002a 6B46     		mov	r3, sp
 149 002c 1B79     		ldrb	r3, [r3, #4]
1704:.\Generated_Source\PSoC4/Bootloader.c **** 
1705:.\Generated_Source\PSoC4/Bootloader.c ****     #if(CY_PSOC4)
1706:.\Generated_Source\PSoC4/Bootloader.c ****         (void) CySysFlashWriteRow((uint32) rowNum, rowData);
 150              		.loc 1 1706 0
 151 002e 111C     		mov	r1, r2
1703:.\Generated_Source\PSoC4/Bootloader.c **** 
 152              		.loc 1 1703 0
 153 0030 1354     		strb	r3, [r2, r0]
 154              		.loc 1 1706 0
 155 0032 A0B2     		uxth	r0, r4
 156 0034 FFF7FEFF 		bl	CySysFlashWriteRow
 157              	.LVL17:
1707:.\Generated_Source\PSoC4/Bootloader.c ****     #else
1708:.\Generated_Source\PSoC4/Bootloader.c ****         (void) CyWriteRowData(arrayId, rowNum, rowData);
1709:.\Generated_Source\PSoC4/Bootloader.c ****     #endif  /* (CY_PSOC4) */
1710:.\Generated_Source\PSoC4/Bootloader.c **** 
ARM GAS  C:\Users\PC69\AppData\Local\Temp\cchFQXNr.s 			page 34


1711:.\Generated_Source\PSoC4/Bootloader.c ****     #if(CY_PSOC5)
1712:.\Generated_Source\PSoC4/Bootloader.c ****         /***************************************************************************
1713:.\Generated_Source\PSoC4/Bootloader.c ****         * When writing Flash, data in the instruction cache can become stale.
1714:.\Generated_Source\PSoC4/Bootloader.c ****         * Therefore, the cache data does not correlate to the data just written to
1715:.\Generated_Source\PSoC4/Bootloader.c ****         * Flash. A call to CyFlushCache() is required to invalidate the data in the
1716:.\Generated_Source\PSoC4/Bootloader.c ****         * cache and force fresh information to be loaded from Flash.
1717:.\Generated_Source\PSoC4/Bootloader.c ****         ***************************************************************************/
1718:.\Generated_Source\PSoC4/Bootloader.c ****         CyFlushCache();
1719:.\Generated_Source\PSoC4/Bootloader.c ****     #endif /* (CY_PSOC5) */
1720:.\Generated_Source\PSoC4/Bootloader.c **** }
 158              		.loc 1 1720 0
 159 0038 23B0     		add	sp, sp, #140
 160              		@ sp needed
 161              	.LVL18:
 162              	.LVL19:
 163              	.LVL20:
 164 003a F0BD     		pop	{r4, r5, r6, r7, pc}
 165              		.cfi_endproc
 166              	.LFE43:
 167              		.size	Bootloader_SetFlashByte, .-Bootloader_SetFlashByte
 168              		.section	.text.Bootloader_GetMetadata,"ax",%progbits
 169              		.align	1
 170              		.global	Bootloader_GetMetadata
 171              		.code	16
 172              		.thumb_func
 173              		.type	Bootloader_GetMetadata, %function
 174              	Bootloader_GetMetadata:
 175              	.LFB44:
1721:.\Generated_Source\PSoC4/Bootloader.c **** 
1722:.\Generated_Source\PSoC4/Bootloader.c **** 
1723:.\Generated_Source\PSoC4/Bootloader.c **** /*******************************************************************************
1724:.\Generated_Source\PSoC4/Bootloader.c **** * Function Name: Bootloader_GetMetadata
1725:.\Generated_Source\PSoC4/Bootloader.c **** ********************************************************************************
1726:.\Generated_Source\PSoC4/Bootloader.c **** *
1727:.\Generated_Source\PSoC4/Bootloader.c **** * Summary:
1728:.\Generated_Source\PSoC4/Bootloader.c **** *  Returns the value of the specified field of the metadata section.
1729:.\Generated_Source\PSoC4/Bootloader.c **** *
1730:.\Generated_Source\PSoC4/Bootloader.c **** * Parameters:
1731:.\Generated_Source\PSoC4/Bootloader.c **** *  field:
1732:.\Generated_Source\PSoC4/Bootloader.c **** *   The field to get data from:
1733:.\Generated_Source\PSoC4/Bootloader.c **** *   Bootloader_GET_BTLDB_CHECKSUM    - Bootloadable Application Checksum
1734:.\Generated_Source\PSoC4/Bootloader.c **** *   Bootloader_GET_BTLDB_ADDR        - Bootloadable Application Start
1735:.\Generated_Source\PSoC4/Bootloader.c **** *                                            Routine Address
1736:.\Generated_Source\PSoC4/Bootloader.c **** *   Bootloader_GET_BTLDR_LAST_ROW    - Bootloader Last Flash Row
1737:.\Generated_Source\PSoC4/Bootloader.c **** *   Bootloader_GET_BTLDB_LENGTH      - Bootloadable Application Length
1738:.\Generated_Source\PSoC4/Bootloader.c **** *   Bootloader_GET_BTLDB_ACTIVE      - Active Bootloadable Application
1739:.\Generated_Source\PSoC4/Bootloader.c **** *   Bootloader_GET_BTLDB_STATUS      - Bootloadable Application
1740:.\Generated_Source\PSoC4/Bootloader.c **** *                                            Verification Status
1741:.\Generated_Source\PSoC4/Bootloader.c **** *   Bootloader_GET_BTLDR_APP_VERSION - Bootloader Application Version
1742:.\Generated_Source\PSoC4/Bootloader.c **** *   Bootloader_GET_BTLDB_APP_VERSION - Bootloadable Application Version
1743:.\Generated_Source\PSoC4/Bootloader.c **** *   Bootloader_GET_BTLDB_APP_ID      - Bootloadable Application ID
1744:.\Generated_Source\PSoC4/Bootloader.c **** *   Bootloader_GET_BTLDB_APP_CUST_ID - Bootloadable Application Custom ID
1745:.\Generated_Source\PSoC4/Bootloader.c **** *
1746:.\Generated_Source\PSoC4/Bootloader.c **** *  appId:
1747:.\Generated_Source\PSoC4/Bootloader.c **** *   Number of the bootlodable application. Should be 0 for the normal
1748:.\Generated_Source\PSoC4/Bootloader.c **** *   bootloader and 0 or 1 for the Multi-Application bootloader.
1749:.\Generated_Source\PSoC4/Bootloader.c **** *
ARM GAS  C:\Users\PC69\AppData\Local\Temp\cchFQXNr.s 			page 35


1750:.\Generated_Source\PSoC4/Bootloader.c **** * Return:
1751:.\Generated_Source\PSoC4/Bootloader.c **** *  The value of the specified field of the specified application.
1752:.\Generated_Source\PSoC4/Bootloader.c **** *
1753:.\Generated_Source\PSoC4/Bootloader.c **** *******************************************************************************/
1754:.\Generated_Source\PSoC4/Bootloader.c **** uint32 Bootloader_GetMetadata(uint8 field, uint8 appId)
1755:.\Generated_Source\PSoC4/Bootloader.c **** {
 176              		.loc 1 1755 0
 177              		.cfi_startproc
 178              	.LVL21:
1756:.\Generated_Source\PSoC4/Bootloader.c ****     uint32 fieldPtr;
1757:.\Generated_Source\PSoC4/Bootloader.c ****     uint8  fieldSize = 2u;
1758:.\Generated_Source\PSoC4/Bootloader.c ****     uint32 result = 0u;
1759:.\Generated_Source\PSoC4/Bootloader.c **** 
1760:.\Generated_Source\PSoC4/Bootloader.c ****     switch (field)
 179              		.loc 1 1760 0
 180 0000 0138     		sub	r0, r0, #1
 181              	.LVL22:
1755:.\Generated_Source\PSoC4/Bootloader.c ****     uint32 fieldPtr;
 182              		.loc 1 1755 0
 183 0002 08B5     		push	{r3, lr}
 184              		.cfi_def_cfa_offset 8
 185              		.cfi_offset 3, -8
 186              		.cfi_offset 14, -4
 187              		.loc 1 1760 0
 188 0004 0928     		cmp	r0, #9
 189 0006 2AD8     		bhi	.L14
 190 0008 C901     		lsl	r1, r1, #7
 191              	.LVL23:
1761:.\Generated_Source\PSoC4/Bootloader.c ****     {
1762:.\Generated_Source\PSoC4/Bootloader.c ****     case Bootloader_GET_BTLDB_CHECKSUM:
1763:.\Generated_Source\PSoC4/Bootloader.c ****         fieldPtr  = Bootloader_MD_BTLDB_CHECKSUM_OFFSET(appId);
1764:.\Generated_Source\PSoC4/Bootloader.c ****         fieldSize = 1u;
1765:.\Generated_Source\PSoC4/Bootloader.c ****         break;
1766:.\Generated_Source\PSoC4/Bootloader.c **** 
1767:.\Generated_Source\PSoC4/Bootloader.c ****     case Bootloader_GET_BTLDB_ADDR:
1768:.\Generated_Source\PSoC4/Bootloader.c ****         fieldPtr  = Bootloader_MD_BTLDB_ADDR_OFFSET(appId);
1769:.\Generated_Source\PSoC4/Bootloader.c ****     #if(!CY_PSOC3)
1770:.\Generated_Source\PSoC4/Bootloader.c ****         fieldSize = 4u;
1771:.\Generated_Source\PSoC4/Bootloader.c ****     #endif  /* (!CY_PSOC3) */
1772:.\Generated_Source\PSoC4/Bootloader.c ****         break;
1773:.\Generated_Source\PSoC4/Bootloader.c **** 
1774:.\Generated_Source\PSoC4/Bootloader.c ****     case Bootloader_GET_BTLDR_LAST_ROW:
1775:.\Generated_Source\PSoC4/Bootloader.c ****         fieldPtr  = Bootloader_MD_BTLDR_LAST_ROW_OFFSET(appId);
1776:.\Generated_Source\PSoC4/Bootloader.c ****         break;
1777:.\Generated_Source\PSoC4/Bootloader.c **** 
1778:.\Generated_Source\PSoC4/Bootloader.c ****     case Bootloader_GET_BTLDB_LENGTH:
1779:.\Generated_Source\PSoC4/Bootloader.c ****         fieldPtr  = Bootloader_MD_BTLDB_LENGTH_OFFSET(appId);
1780:.\Generated_Source\PSoC4/Bootloader.c ****     #if(!CY_PSOC3)
1781:.\Generated_Source\PSoC4/Bootloader.c ****         fieldSize = 4u;
1782:.\Generated_Source\PSoC4/Bootloader.c ****     #endif  /* (!CY_PSOC3) */
1783:.\Generated_Source\PSoC4/Bootloader.c ****         break;
1784:.\Generated_Source\PSoC4/Bootloader.c **** 
1785:.\Generated_Source\PSoC4/Bootloader.c ****     case Bootloader_GET_BTLDB_ACTIVE:
1786:.\Generated_Source\PSoC4/Bootloader.c ****         fieldPtr  = Bootloader_MD_BTLDB_ACTIVE_OFFSET(appId);
1787:.\Generated_Source\PSoC4/Bootloader.c ****         fieldSize = 1u;
1788:.\Generated_Source\PSoC4/Bootloader.c ****         break;
1789:.\Generated_Source\PSoC4/Bootloader.c **** 
ARM GAS  C:\Users\PC69\AppData\Local\Temp\cchFQXNr.s 			page 36


1790:.\Generated_Source\PSoC4/Bootloader.c ****     case Bootloader_GET_BTLDB_STATUS:
1791:.\Generated_Source\PSoC4/Bootloader.c ****         fieldPtr  = Bootloader_MD_BTLDB_VERIFIED_OFFSET(appId);
1792:.\Generated_Source\PSoC4/Bootloader.c ****         fieldSize = 1u;
1793:.\Generated_Source\PSoC4/Bootloader.c ****         break;
1794:.\Generated_Source\PSoC4/Bootloader.c **** 
1795:.\Generated_Source\PSoC4/Bootloader.c ****     case Bootloader_GET_BTLDB_APP_VERSION:
1796:.\Generated_Source\PSoC4/Bootloader.c ****         fieldPtr  = Bootloader_MD_BTLDB_APP_VERSION_OFFSET(appId);
1797:.\Generated_Source\PSoC4/Bootloader.c ****         break;
1798:.\Generated_Source\PSoC4/Bootloader.c **** 
1799:.\Generated_Source\PSoC4/Bootloader.c ****     case Bootloader_GET_BTLDR_APP_VERSION:
1800:.\Generated_Source\PSoC4/Bootloader.c ****         fieldPtr  = Bootloader_MD_BTLDR_APP_VERSION_OFFSET(appId);
1801:.\Generated_Source\PSoC4/Bootloader.c ****         break;
1802:.\Generated_Source\PSoC4/Bootloader.c **** 
1803:.\Generated_Source\PSoC4/Bootloader.c ****     case Bootloader_GET_BTLDB_APP_ID:
1804:.\Generated_Source\PSoC4/Bootloader.c ****         fieldPtr  = Bootloader_MD_BTLDB_APP_ID_OFFSET(appId);
1805:.\Generated_Source\PSoC4/Bootloader.c ****         break;
1806:.\Generated_Source\PSoC4/Bootloader.c **** 
1807:.\Generated_Source\PSoC4/Bootloader.c ****     case Bootloader_GET_BTLDB_APP_CUST_ID:
1808:.\Generated_Source\PSoC4/Bootloader.c ****         fieldPtr  = Bootloader_MD_BTLDB_APP_CUST_ID_OFFSET(appId);
 192              		.loc 1 1808 0
 193 000a 4942     		neg	r1, r1
1760:.\Generated_Source\PSoC4/Bootloader.c ****     {
 194              		.loc 1 1760 0
 195 000c FFF7FEFF 		bl	__gnu_thumb1_case_uqi
 196              	.L16:
 197 0010 05       		.byte	(.L15-.L16)/2
 198 0011 07       		.byte	(.L17-.L16)/2
 199 0012 09       		.byte	(.L18-.L16)/2
 200 0013 0B       		.byte	(.L19-.L16)/2
 201 0014 0D       		.byte	(.L20-.L16)/2
 202 0015 0F       		.byte	(.L21-.L16)/2
 203 0016 16       		.byte	(.L22-.L16)/2
 204 0017 14       		.byte	(.L23-.L16)/2
 205 0018 18       		.byte	(.L24-.L16)/2
 206 0019 1B       		.byte	(.L25-.L16)/2
 207              		.p2align 1
 208              	.L15:
1763:.\Generated_Source\PSoC4/Bootloader.c ****         fieldSize = 1u;
 209              		.loc 1 1763 0
 210 001a 154B     		ldr	r3, .L35
 211 001c 08E0     		b	.L31
 212              	.L17:
1768:.\Generated_Source\PSoC4/Bootloader.c ****     #if(!CY_PSOC3)
 213              		.loc 1 1768 0
 214 001e 154B     		ldr	r3, .L35+4
 215 0020 12E0     		b	.L33
 216              	.L18:
1775:.\Generated_Source\PSoC4/Bootloader.c ****         break;
 217              		.loc 1 1775 0
 218 0022 154B     		ldr	r3, .L35+8
 219 0024 0DE0     		b	.L32
 220              	.L19:
1779:.\Generated_Source\PSoC4/Bootloader.c ****     #if(!CY_PSOC3)
 221              		.loc 1 1779 0
 222 0026 154B     		ldr	r3, .L35+12
 223 0028 0EE0     		b	.L33
 224              	.L20:
ARM GAS  C:\Users\PC69\AppData\Local\Temp\cchFQXNr.s 			page 37


1786:.\Generated_Source\PSoC4/Bootloader.c ****         fieldSize = 1u;
 225              		.loc 1 1786 0
 226 002a 154B     		ldr	r3, .L35+16
 227 002c 00E0     		b	.L31
 228              	.L21:
1791:.\Generated_Source\PSoC4/Bootloader.c ****         fieldSize = 1u;
 229              		.loc 1 1791 0
 230 002e 154B     		ldr	r3, .L35+20
 231              	.L31:
 232 0030 C918     		add	r1, r1, r3
 233              	.LVL24:
1809:.\Generated_Source\PSoC4/Bootloader.c ****         fieldSize = 4u;
1810:.\Generated_Source\PSoC4/Bootloader.c ****         break;
1811:.\Generated_Source\PSoC4/Bootloader.c **** 
1812:.\Generated_Source\PSoC4/Bootloader.c ****     default:
1813:.\Generated_Source\PSoC4/Bootloader.c ****         /* Should never be here */
1814:.\Generated_Source\PSoC4/Bootloader.c ****         CYASSERT(0u != 0u);
1815:.\Generated_Source\PSoC4/Bootloader.c ****         fieldPtr  = 0u;
1816:.\Generated_Source\PSoC4/Bootloader.c ****         break;
1817:.\Generated_Source\PSoC4/Bootloader.c ****     }
1818:.\Generated_Source\PSoC4/Bootloader.c **** 
1819:.\Generated_Source\PSoC4/Bootloader.c **** 
1820:.\Generated_Source\PSoC4/Bootloader.c ****     if (1u == fieldSize)
1821:.\Generated_Source\PSoC4/Bootloader.c ****     {
1822:.\Generated_Source\PSoC4/Bootloader.c ****         result =  (uint32) CY_GET_XTND_REG8((volatile uint8 *)fieldPtr);
 234              		.loc 1 1822 0
 235 0032 0878     		ldrb	r0, [r1]
 236 0034 C0B2     		uxtb	r0, r0
 237              	.LVL25:
 238 0036 1AE0     		b	.L30
 239              	.LVL26:
 240              	.L23:
1796:.\Generated_Source\PSoC4/Bootloader.c ****         break;
 241              		.loc 1 1796 0
 242 0038 134B     		ldr	r3, .L35+24
 243 003a 02E0     		b	.L32
 244              	.L22:
1800:.\Generated_Source\PSoC4/Bootloader.c ****         break;
 245              		.loc 1 1800 0
 246 003c 134B     		ldr	r3, .L35+28
 247 003e 00E0     		b	.L32
 248              	.L24:
1804:.\Generated_Source\PSoC4/Bootloader.c ****         break;
 249              		.loc 1 1804 0
 250 0040 134B     		ldr	r3, .L35+32
 251              	.L32:
 252 0042 C918     		add	r1, r1, r3
 253              	.LVL27:
1805:.\Generated_Source\PSoC4/Bootloader.c **** 
 254              		.loc 1 1805 0
 255 0044 0FE0     		b	.L28
 256              	.LVL28:
 257              	.L25:
1808:.\Generated_Source\PSoC4/Bootloader.c ****         fieldSize = 4u;
 258              		.loc 1 1808 0
 259 0046 134B     		ldr	r3, .L35+36
 260              	.L33:
ARM GAS  C:\Users\PC69\AppData\Local\Temp\cchFQXNr.s 			page 38


 261 0048 C918     		add	r1, r1, r3
 262              	.LVL29:
1823:.\Generated_Source\PSoC4/Bootloader.c ****     }
1824:.\Generated_Source\PSoC4/Bootloader.c **** 
1825:.\Generated_Source\PSoC4/Bootloader.c ****     #if(CY_PSOC3)   /* Big-endian */
1826:.\Generated_Source\PSoC4/Bootloader.c **** 
1827:.\Generated_Source\PSoC4/Bootloader.c ****         if (2u == fieldSize)
1828:.\Generated_Source\PSoC4/Bootloader.c ****         {
1829:.\Generated_Source\PSoC4/Bootloader.c ****             result =  (uint32) CY_GET_XTND_REG8((volatile uint8 *)(fieldPtr + 1u));
1830:.\Generated_Source\PSoC4/Bootloader.c ****             result |= (uint32) CY_GET_XTND_REG8((volatile uint8 *)(fieldPtr     )) <<  8u;
1831:.\Generated_Source\PSoC4/Bootloader.c ****         }
1832:.\Generated_Source\PSoC4/Bootloader.c **** 
1833:.\Generated_Source\PSoC4/Bootloader.c ****         if (4u == fieldSize)
1834:.\Generated_Source\PSoC4/Bootloader.c ****         {
1835:.\Generated_Source\PSoC4/Bootloader.c ****             result =  (uint32) CY_GET_XTND_REG8((volatile uint8 *)(fieldPtr + 3u));
1836:.\Generated_Source\PSoC4/Bootloader.c ****             result |= (uint32) CY_GET_XTND_REG8((volatile uint8 *)(fieldPtr + 2u)) <<  8u;
1837:.\Generated_Source\PSoC4/Bootloader.c ****             result |= (uint32) CY_GET_XTND_REG8((volatile uint8 *)(fieldPtr + 1u)) << 16u;
1838:.\Generated_Source\PSoC4/Bootloader.c ****             result |= (uint32) CY_GET_XTND_REG8((volatile uint8 *)(fieldPtr     )) << 24u;
1839:.\Generated_Source\PSoC4/Bootloader.c ****         }
1840:.\Generated_Source\PSoC4/Bootloader.c **** 
1841:.\Generated_Source\PSoC4/Bootloader.c ****     #else   /* PSoC 4 and PSoC 5: Little-endian */
1842:.\Generated_Source\PSoC4/Bootloader.c **** 
1843:.\Generated_Source\PSoC4/Bootloader.c ****         if (2u == fieldSize)
1844:.\Generated_Source\PSoC4/Bootloader.c ****         {
1845:.\Generated_Source\PSoC4/Bootloader.c ****             result =  (uint32) CY_GET_XTND_REG8((volatile uint8 *) (fieldPtr     ));
1846:.\Generated_Source\PSoC4/Bootloader.c ****             result |= (uint32) CY_GET_XTND_REG8((volatile uint8 *) (fieldPtr + 1u)) <<  8u;
1847:.\Generated_Source\PSoC4/Bootloader.c ****         }
1848:.\Generated_Source\PSoC4/Bootloader.c **** 
1849:.\Generated_Source\PSoC4/Bootloader.c ****         if (4u == fieldSize)
1850:.\Generated_Source\PSoC4/Bootloader.c ****         {
1851:.\Generated_Source\PSoC4/Bootloader.c ****             result =  (uint32) CY_GET_XTND_REG8((volatile uint8 *)(fieldPtr     ));
 263              		.loc 1 1851 0
 264 004a 0A78     		ldrb	r2, [r1]
 265              	.LVL30:
1852:.\Generated_Source\PSoC4/Bootloader.c ****             result |= (uint32) CY_GET_XTND_REG8((volatile uint8 *)(fieldPtr + 1u)) <<  8u;
 266              		.loc 1 1852 0
 267 004c 4878     		ldrb	r0, [r1, #1]
 268              	.LVL31:
1853:.\Generated_Source\PSoC4/Bootloader.c ****             result |= (uint32) CY_GET_XTND_REG8((volatile uint8 *)(fieldPtr + 2u)) << 16u;
 269              		.loc 1 1853 0
 270 004e 8B78     		ldrb	r3, [r1, #2]
1852:.\Generated_Source\PSoC4/Bootloader.c ****             result |= (uint32) CY_GET_XTND_REG8((volatile uint8 *)(fieldPtr + 1u)) <<  8u;
 271              		.loc 1 1852 0
 272 0050 0002     		lsl	r0, r0, #8
 273              	.LVL32:
 274              		.loc 1 1853 0
 275 0052 1B04     		lsl	r3, r3, #16
 276 0054 1843     		orr	r0, r3
1854:.\Generated_Source\PSoC4/Bootloader.c ****             result |= (uint32) CY_GET_XTND_REG8((volatile uint8 *)(fieldPtr + 3u)) << 24u;
 277              		.loc 1 1854 0
 278 0056 CB78     		ldrb	r3, [r1, #3]
1853:.\Generated_Source\PSoC4/Bootloader.c ****             result |= (uint32) CY_GET_XTND_REG8((volatile uint8 *)(fieldPtr + 2u)) << 16u;
 279              		.loc 1 1853 0
 280 0058 1043     		orr	r0, r2
 281              	.LVL33:
 282              		.loc 1 1854 0
 283 005a 1B06     		lsl	r3, r3, #24
ARM GAS  C:\Users\PC69\AppData\Local\Temp\cchFQXNr.s 			page 39


 284 005c 06E0     		b	.L34
 285              	.LVL34:
 286              	.L14:
1814:.\Generated_Source\PSoC4/Bootloader.c ****         fieldPtr  = 0u;
 287              		.loc 1 1814 0 discriminator 1
 288 005e 0020     		mov	r0, #0
 289 0060 FFF7FEFF 		bl	CyHalt
 290              	.LVL35:
1815:.\Generated_Source\PSoC4/Bootloader.c ****         break;
 291              		.loc 1 1815 0 discriminator 1
 292 0064 0021     		mov	r1, #0
 293              	.LVL36:
 294              	.L28:
1845:.\Generated_Source\PSoC4/Bootloader.c ****             result |= (uint32) CY_GET_XTND_REG8((volatile uint8 *) (fieldPtr + 1u)) <<  8u;
 295              		.loc 1 1845 0
 296 0066 0B78     		ldrb	r3, [r1]
 297              	.LVL37:
1846:.\Generated_Source\PSoC4/Bootloader.c ****         }
 298              		.loc 1 1846 0
 299 0068 4878     		ldrb	r0, [r1, #1]
 300 006a 0002     		lsl	r0, r0, #8
 301              	.LVL38:
 302              	.L34:
 303              		.loc 1 1854 0
 304 006c 1843     		orr	r0, r3
 305              	.LVL39:
 306              	.L30:
1855:.\Generated_Source\PSoC4/Bootloader.c ****         }
1856:.\Generated_Source\PSoC4/Bootloader.c **** 
1857:.\Generated_Source\PSoC4/Bootloader.c ****     #endif /* (CY_PSOC3) */
1858:.\Generated_Source\PSoC4/Bootloader.c **** 
1859:.\Generated_Source\PSoC4/Bootloader.c ****     return (result);
1860:.\Generated_Source\PSoC4/Bootloader.c **** }
 307              		.loc 1 1860 0
 308              		@ sp needed
 309 006e 08BD     		pop	{r3, pc}
 310              	.L36:
 311              		.align	2
 312              	.L35:
 313 0070 C07F0000 		.word	32704
 314 0074 C17F0000 		.word	32705
 315 0078 C57F0000 		.word	32709
 316 007c C97F0000 		.word	32713
 317 0080 D07F0000 		.word	32720
 318 0084 D17F0000 		.word	32721
 319 0088 D67F0000 		.word	32726
 320 008c D27F0000 		.word	32722
 321 0090 D47F0000 		.word	32724
 322 0094 D87F0000 		.word	32728
 323              		.cfi_endproc
 324              	.LFE44:
 325              		.size	Bootloader_GetMetadata, .-Bootloader_GetMetadata
 326              		.section	.text.CyBtldr_CheckLaunch,"ax",%progbits
 327              		.align	1
 328              		.global	CyBtldr_CheckLaunch
 329              		.code	16
 330              		.thumb_func
ARM GAS  C:\Users\PC69\AppData\Local\Temp\cchFQXNr.s 			page 40


 331              		.type	CyBtldr_CheckLaunch, %function
 332              	CyBtldr_CheckLaunch:
 333              	.LFB38:
 539:.\Generated_Source\PSoC4/Bootloader.c **** 
 334              		.loc 1 539 0
 335              		.cfi_startproc
 548:.\Generated_Source\PSoC4/Bootloader.c ****     {
 336              		.loc 1 548 0
 337 0000 0C4B     		ldr	r3, .L45
 539:.\Generated_Source\PSoC4/Bootloader.c **** 
 338              		.loc 1 539 0
 339 0002 10B5     		push	{r4, lr}
 340              		.cfi_def_cfa_offset 8
 341              		.cfi_offset 4, -8
 342              		.cfi_offset 14, -4
 548:.\Generated_Source\PSoC4/Bootloader.c ****     {
 343              		.loc 1 548 0
 344 0004 1A68     		ldr	r2, [r3]
 345 0006 1023     		mov	r3, #16
 346 0008 1340     		and	r3, r2
 347 000a 0B4A     		ldr	r2, .L45+4
 348 000c 00D1     		bne	.L38
 550:.\Generated_Source\PSoC4/Bootloader.c ****     }
 349              		.loc 1 550 0
 350 000e 1360     		str	r3, [r2]
 351              	.L38:
 556:.\Generated_Source\PSoC4/Bootloader.c ****     {
 352              		.loc 1 556 0
 353 0010 1368     		ldr	r3, [r2]
 354 0012 802B     		cmp	r3, #128
 355 0014 0DD1     		bne	.L37
 558:.\Generated_Source\PSoC4/Bootloader.c **** 
 356              		.loc 1 558 0
 357 0016 0024     		mov	r4, #0
 566:.\Generated_Source\PSoC4/Bootloader.c ****         {
 358              		.loc 1 566 0
 359 0018 0220     		mov	r0, #2
 360 001a 211C     		mov	r1, r4
 558:.\Generated_Source\PSoC4/Bootloader.c **** 
 361              		.loc 1 558 0
 362 001c 1460     		str	r4, [r2]
 566:.\Generated_Source\PSoC4/Bootloader.c ****         {
 363              		.loc 1 566 0
 364 001e FFF7FEFF 		bl	Bootloader_GetMetadata
 365              	.LVL40:
 366 0022 A042     		cmp	r0, r4
 367 0024 05D0     		beq	.L37
 569:.\Generated_Source\PSoC4/Bootloader.c ****                                                                              Bootloader_activeApp))
 368              		.loc 1 569 0
 369 0026 211C     		mov	r1, r4
 370 0028 0220     		mov	r0, #2
 371 002a FFF7FEFF 		bl	Bootloader_GetMetadata
 372              	.LVL41:
 373 002e FFF7FEFF 		bl	Bootloader_LaunchBootloadable
 374              	.LVL42:
 375              	.L37:
 573:.\Generated_Source\PSoC4/Bootloader.c **** 
ARM GAS  C:\Users\PC69\AppData\Local\Temp\cchFQXNr.s 			page 41


 376              		.loc 1 573 0
 377              		@ sp needed
 378 0032 10BD     		pop	{r4, pc}
 379              	.L46:
 380              		.align	2
 381              	.L45:
 382 0034 00030B40 		.word	1074463488
 383 0038 00000000 		.word	cyBtldrRunType
 384              		.cfi_endproc
 385              	.LFE38:
 386              		.size	CyBtldr_CheckLaunch, .-CyBtldr_CheckLaunch
 387              		.section	.text.Bootloader_ValidateBootloadable,"ax",%progbits
 388              		.align	1
 389              		.global	Bootloader_ValidateBootloadable
 390              		.code	16
 391              		.thumb_func
 392              		.type	Bootloader_ValidateBootloadable, %function
 393              	Bootloader_ValidateBootloadable:
 394              	.LFB40:
 634:.\Generated_Source\PSoC4/Bootloader.c ****         uint32 CYDATA idx;
 395              		.loc 1 634 0
 396              		.cfi_startproc
 397              	.LVL43:
 398 0000 F8B5     		push	{r3, r4, r5, r6, r7, lr}
 399              		.cfi_def_cfa_offset 24
 400              		.cfi_offset 3, -24
 401              		.cfi_offset 4, -20
 402              		.cfi_offset 5, -16
 403              		.cfi_offset 6, -12
 404              		.cfi_offset 7, -8
 405              		.cfi_offset 14, -4
 634:.\Generated_Source\PSoC4/Bootloader.c ****         uint32 CYDATA idx;
 406              		.loc 1 634 0
 407 0002 041C     		mov	r4, r0
 637:.\Generated_Source\PSoC4/Bootloader.c ****                                 Bootloader_GetMetadata(Bootloader_GET_BTLDB_LENGTH,
 408              		.loc 1 637 0
 409 0004 0320     		mov	r0, #3
 410              	.LVL44:
 411 0006 211C     		mov	r1, r4
 412 0008 FFF7FEFF 		bl	Bootloader_GetMetadata
 413              	.LVL45:
 638:.\Generated_Source\PSoC4/Bootloader.c ****                                                        appId);
 414              		.loc 1 638 0
 415 000c 211C     		mov	r1, r4
 637:.\Generated_Source\PSoC4/Bootloader.c ****                                 Bootloader_GetMetadata(Bootloader_GET_BTLDB_LENGTH,
 416              		.loc 1 637 0
 417 000e 061C     		mov	r6, r0
 638:.\Generated_Source\PSoC4/Bootloader.c ****                                                        appId);
 418              		.loc 1 638 0
 419 0010 0420     		mov	r0, #4
 420 0012 FFF7FEFF 		bl	Bootloader_GetMetadata
 421              	.LVL46:
 658:.\Generated_Source\PSoC4/Bootloader.c ****                Bootloader_MD_BTLDB_IS_VERIFIED)
 422              		.loc 1 658 0
 423 0016 211C     		mov	r1, r4
 638:.\Generated_Source\PSoC4/Bootloader.c ****                                                        appId);
 424              		.loc 1 638 0
ARM GAS  C:\Users\PC69\AppData\Local\Temp\cchFQXNr.s 			page 42


 425 0018 071C     		mov	r7, r0
 426              	.LVL47:
 658:.\Generated_Source\PSoC4/Bootloader.c ****                Bootloader_MD_BTLDB_IS_VERIFIED)
 427              		.loc 1 658 0
 428 001a 0620     		mov	r0, #6
 429              	.LVL48:
 430 001c FFF7FEFF 		bl	Bootloader_GetMetadata
 431              	.LVL49:
 661:.\Generated_Source\PSoC4/Bootloader.c ****             }
 432              		.loc 1 661 0
 433 0020 0025     		mov	r5, #0
 658:.\Generated_Source\PSoC4/Bootloader.c ****                Bootloader_MD_BTLDB_IS_VERIFIED)
 434              		.loc 1 658 0
 435 0022 0128     		cmp	r0, #1
 436 0024 28D0     		beq	.L48
 668:.\Generated_Source\PSoC4/Bootloader.c ****         {
 437              		.loc 1 668 0
 438 0026 0320     		mov	r0, #3
 439 0028 211C     		mov	r1, r4
 440 002a FFF7FEFF 		bl	Bootloader_GetMetadata
 441              	.LVL50:
 637:.\Generated_Source\PSoC4/Bootloader.c ****                                 Bootloader_GetMetadata(Bootloader_GET_BTLDB_LENGTH,
 442              		.loc 1 637 0
 443 002e 0136     		add	r6, r6, #1
 444              	.LVL51:
 445 0030 F601     		lsl	r6, r6, #7
 446              	.LVL52:
 447 0032 F719     		add	r7, r6, r7
 641:.\Generated_Source\PSoC4/Bootloader.c ****         uint8  CYDATA calcedChecksum = 0u;
 448              		.loc 1 641 0
 449 0034 2E1C     		mov	r6, r5
 668:.\Generated_Source\PSoC4/Bootloader.c ****         {
 450              		.loc 1 668 0
 451 0036 0130     		add	r0, r0, #1
 452 0038 C001     		lsl	r0, r0, #7
 453              	.LVL53:
 454              	.L49:
 668:.\Generated_Source\PSoC4/Bootloader.c ****         {
 455              		.loc 1 668 0 is_stmt 0 discriminator 1
 456 003a B842     		cmp	r0, r7
 457 003c 09D2     		bcs	.L57
 458              	.LBB8:
 670:.\Generated_Source\PSoC4/Bootloader.c **** 
 459              		.loc 1 670 0 is_stmt 1
 460 003e 0378     		ldrb	r3, [r0]
 461              	.LVL54:
 672:.\Generated_Source\PSoC4/Bootloader.c ****             {
 462              		.loc 1 672 0
 463 0040 5A1E     		sub	r2, r3, #1
 464 0042 D2B2     		uxtb	r2, r2
 465 0044 FD2A     		cmp	r2, #253
 466 0046 00D8     		bhi	.L50
 674:.\Generated_Source\PSoC4/Bootloader.c ****             }
 467              		.loc 1 674 0
 468 0048 0126     		mov	r6, #1
 469              	.LVL55:
 470              	.L50:
ARM GAS  C:\Users\PC69\AppData\Local\Temp\cchFQXNr.s 			page 43


 677:.\Generated_Source\PSoC4/Bootloader.c ****         }
 471              		.loc 1 677 0 discriminator 2
 472 004a 5D19     		add	r5, r3, r5
 473              	.LVL56:
 474 004c EDB2     		uxtb	r5, r5
 475              	.LVL57:
 476              	.LBE8:
 668:.\Generated_Source\PSoC4/Bootloader.c ****         {
 477              		.loc 1 668 0 discriminator 2
 478 004e 0130     		add	r0, r0, #1
 479              	.LVL58:
 480 0050 F3E7     		b	.L49
 481              	.LVL59:
 482              	.L57:
 709:.\Generated_Source\PSoC4/Bootloader.c ****            (0u == valid))
 483              		.loc 1 709 0
 484 0052 0120     		mov	r0, #1
 485              	.LVL60:
 486 0054 211C     		mov	r1, r4
 487 0056 FFF7FEFF 		bl	Bootloader_GetMetadata
 488              	.LVL61:
 706:.\Generated_Source\PSoC4/Bootloader.c **** 
 489              		.loc 1 706 0
 490 005a 6D42     		neg	r5, r5
 491              	.LVL62:
 709:.\Generated_Source\PSoC4/Bootloader.c ****            (0u == valid))
 492              		.loc 1 709 0
 493 005c EBB2     		uxtb	r3, r5
 712:.\Generated_Source\PSoC4/Bootloader.c ****         }
 494              		.loc 1 712 0
 495 005e 0625     		mov	r5, #6
 709:.\Generated_Source\PSoC4/Bootloader.c ****            (0u == valid))
 496              		.loc 1 709 0
 497 0060 8342     		cmp	r3, r0
 498 0062 09D1     		bne	.L48
 709:.\Generated_Source\PSoC4/Bootloader.c ****            (0u == valid))
 499              		.loc 1 709 0 is_stmt 0 discriminator 1
 500 0064 002E     		cmp	r6, #0
 501 0066 07D0     		beq	.L48
 717:.\Generated_Source\PSoC4/Bootloader.c ****                                           Bootloader_MD_BTLDB_IS_VERIFIED);
 502              		.loc 1 717 0 is_stmt 1
 503 0068 044B     		ldr	r3, .L58
 504 006a E401     		lsl	r4, r4, #7
 505 006c 6042     		neg	r0, r4
 506 006e C018     		add	r0, r0, r3
 507 0070 0121     		mov	r1, #1
 508 0072 FFF7FEFF 		bl	Bootloader_SetFlashByte
 509              	.LVL63:
 722:.\Generated_Source\PSoC4/Bootloader.c **** }
 510              		.loc 1 722 0
 511 0076 0025     		mov	r5, #0
 512              	.LVL64:
 513              	.L48:
 723:.\Generated_Source\PSoC4/Bootloader.c **** 
 514              		.loc 1 723 0
 515 0078 281C     		mov	r0, r5
 516              		@ sp needed
ARM GAS  C:\Users\PC69\AppData\Local\Temp\cchFQXNr.s 			page 44


 517 007a F8BD     		pop	{r3, r4, r5, r6, r7, pc}
 518              	.L59:
 519              		.align	2
 520              	.L58:
 521 007c D17F0000 		.word	32721
 522              		.cfi_endproc
 523              	.LFE40:
 524              		.size	Bootloader_ValidateBootloadable, .-Bootloader_ValidateBootloadable
 525              		.section	.text.Bootloader_Exit,"ax",%progbits
 526              		.align	1
 527              		.global	Bootloader_Exit
 528              		.code	16
 529              		.thumb_func
 530              		.type	Bootloader_Exit, %function
 531              	Bootloader_Exit:
 532              	.LFB37:
 487:.\Generated_Source\PSoC4/Bootloader.c ****     if(Bootloader_EXIT_TO_BTLDR == appId)
 533              		.loc 1 487 0
 534              		.cfi_startproc
 535              	.LVL65:
 536 0000 38B5     		push	{r3, r4, r5, lr}
 537              		.cfi_def_cfa_offset 16
 538              		.cfi_offset 3, -16
 539              		.cfi_offset 4, -12
 540              		.cfi_offset 5, -8
 541              		.cfi_offset 14, -4
 487:.\Generated_Source\PSoC4/Bootloader.c ****     if(Bootloader_EXIT_TO_BTLDR == appId)
 542              		.loc 1 487 0
 543 0002 041E     		sub	r4, r0, #0
 544 0004 094D     		ldr	r5, .L65
 488:.\Generated_Source\PSoC4/Bootloader.c ****     {
 545              		.loc 1 488 0
 546 0006 022C     		cmp	r4, #2
 547 0008 0BD0     		beq	.L63
 494:.\Generated_Source\PSoC4/Bootloader.c ****         {
 548              		.loc 1 494 0
 549 000a FFF7FEFF 		bl	Bootloader_ValidateBootloadable
 550              	.LVL66:
 551 000e 0028     		cmp	r0, #0
 552 0010 07D1     		bne	.L63
 553              	.LVL67:
 554              	.LBB9:
 500:.\Generated_Source\PSoC4/Bootloader.c ****                                               (uint8 )(idx == appId));
 555              		.loc 1 500 0 discriminator 3
 556 0012 6142     		neg	r1, r4
 557 0014 6141     		adc	r1, r1, r4
 558 0016 0648     		ldr	r0, .L65+4
 559 0018 C9B2     		uxtb	r1, r1
 560 001a FFF7FEFF 		bl	Bootloader_SetFlashByte
 561              	.LVL68:
 508:.\Generated_Source\PSoC4/Bootloader.c ****         }
 562              		.loc 1 508 0 discriminator 3
 563 001e 8023     		mov	r3, #128
 564 0020 00E0     		b	.L64
 565              	.LVL69:
 566              	.L63:
 567              	.LBE9:
ARM GAS  C:\Users\PC69\AppData\Local\Temp\cchFQXNr.s 			page 45


 512:.\Generated_Source\PSoC4/Bootloader.c ****         }
 568              		.loc 1 512 0
 569 0022 0023     		mov	r3, #0
 570              	.L64:
 571 0024 2B60     		str	r3, [r5]
 517:.\Generated_Source\PSoC4/Bootloader.c **** 
 572              		.loc 1 517 0
 573              		@ sp needed
 516:.\Generated_Source\PSoC4/Bootloader.c **** }
 574              		.loc 1 516 0
 575 0026 FFF7FEFF 		bl	CySoftwareReset
 576              	.LVL70:
 517:.\Generated_Source\PSoC4/Bootloader.c **** 
 577              		.loc 1 517 0
 578 002a 38BD     		pop	{r3, r4, r5, pc}
 579              	.L66:
 580              		.align	2
 581              	.L65:
 582 002c 00000000 		.word	cyBtldrRunType
 583 0030 D07F0000 		.word	32720
 584              		.cfi_endproc
 585              	.LFE37:
 586              		.size	Bootloader_Exit, .-Bootloader_Exit
 587              		.section	.text.Bootloader_HostLink.constprop.0,"ax",%progbits
 588              		.align	1
 589              		.code	16
 590              		.thumb_func
 591              		.type	Bootloader_HostLink.constprop.0, %function
 592              	Bootloader_HostLink.constprop.0:
 593              	.LFB45:
 744:.\Generated_Source\PSoC4/Bootloader.c **** {
 594              		.loc 1 744 0
 595              		.cfi_startproc
 596              	.LVL71:
 597 0000 F0B5     		push	{r4, r5, r6, r7, lr}
 598              		.cfi_def_cfa_offset 20
 599              		.cfi_offset 4, -20
 600              		.cfi_offset 5, -16
 601              		.cfi_offset 6, -12
 602              		.cfi_offset 7, -8
 603              		.cfi_offset 14, -4
 604 0002 B24C     		ldr	r4, .L129
 605 0004 A544     		add	sp, sp, r4
 606              		.cfi_def_cfa_offset 776
 800:.\Generated_Source\PSoC4/Bootloader.c **** 
 607              		.loc 1 800 0
 608 0006 FFF7FEFF 		bl	CyBtldrCommStart
 609              	.LVL72:
 803:.\Generated_Source\PSoC4/Bootloader.c **** 
 610              		.loc 1 803 0
 611              	@ 803 ".\Generated_Source\PSoC4\Bootloader.c" 1
 612 000a 62B6     		CPSIE   i
 613              	@ 0 "" 2
 759:.\Generated_Source\PSoC4/Bootloader.c **** 
 614              		.loc 1 759 0
 615              		.code	16
 616 000c 0023     		mov	r3, #0
ARM GAS  C:\Users\PC69\AppData\Local\Temp\cchFQXNr.s 			page 46


 617 000e 0193     		str	r3, [sp, #4]
 756:.\Generated_Source\PSoC4/Bootloader.c ****     #endif  /* (0u != Bootloader_FAST_APP_VALIDATION) */
 618              		.loc 1 756 0
 619 0010 0393     		str	r3, [sp, #12]
 620              	.LVL73:
 621              	.L111:
 622              	.LBB22:
1379:.\Generated_Source\PSoC4/Bootloader.c **** 
 623              		.loc 1 1379 0
 624 0012 0026     		mov	r6, #0
 625              	.L69:
 626              	.LBE22:
 811:.\Generated_Source\PSoC4/Bootloader.c ****                                         Bootloader_SIZEOF_COMMAND_BUFFER,
 627              		.loc 1 811 0
 628 0014 9621     		mov	r1, #150
 629 0016 26AD     		add	r5, sp, #152
 630 0018 05AC     		add	r4, sp, #20
 631 001a 281C     		mov	r0, r5
 632 001c 4900     		lsl	r1, r1, #1
 633 001e 221C     		mov	r2, r4
 634 0020 FF23     		mov	r3, #255
 635 0022 FFF7FEFF 		bl	CyBtldrCommRead
 636              	.LVL74:
 820:.\Generated_Source\PSoC4/Bootloader.c **** 
 637              		.loc 1 820 0
 638 0026 0028     		cmp	r0, #0
 639 0028 F4D1     		bne	.L69
 828:.\Generated_Source\PSoC4/Bootloader.c ****            (packetBuffer[Bootloader_SOP_ADDR] != Bootloader_SOP))
 640              		.loc 1 828 0
 641 002a 2188     		ldrh	r1, [r4]
 642 002c 0629     		cmp	r1, #6
 643 002e 00D8     		bhi	.LCB607
 644 0030 47E1     		b	.L93	@long jump
 645              	.LCB607:
 646 0032 2A78     		ldrb	r2, [r5]
 831:.\Generated_Source\PSoC4/Bootloader.c ****         }
 647              		.loc 1 831 0
 648 0034 0423     		mov	r3, #4
 828:.\Generated_Source\PSoC4/Bootloader.c ****            (packetBuffer[Bootloader_SOP_ADDR] != Bootloader_SOP))
 649              		.loc 1 828 0
 650 0036 012A     		cmp	r2, #1
 651 0038 6FD1     		bne	.L123
 835:.\Generated_Source\PSoC4/Bootloader.c ****                                packetBuffer[Bootloader_SIZE_ADDR];
 652              		.loc 1 835 0
 653 003a EC78     		ldrb	r4, [r5, #3]
 654 003c AA78     		ldrb	r2, [r5, #2]
 655 003e 2402     		lsl	r4, r4, #8
 656 0040 1443     		orr	r4, r2
 657              	.LVL75:
 838:.\Generated_Source\PSoC4/Bootloader.c ****                                    packetBuffer[Bootloader_CHK_ADDR(pktSize)];
 658              		.loc 1 838 0
 659 0042 2A19     		add	r2, r5, r4
 660 0044 5779     		ldrb	r7, [r2, #5]
 661 0046 BC46     		mov	ip, r7
 839:.\Generated_Source\PSoC4/Bootloader.c **** 
 662              		.loc 1 839 0
 663 0048 1779     		ldrb	r7, [r2, #4]
ARM GAS  C:\Users\PC69\AppData\Local\Temp\cchFQXNr.s 			page 47


 664 004a 0297     		str	r7, [sp, #8]
 665              	.LVL76:
 841:.\Generated_Source\PSoC4/Bootloader.c ****             {
 666              		.loc 1 841 0
 667 004c E71D     		add	r7, r4, #7
 668 004e 8F42     		cmp	r7, r1
 669 0050 00D9     		bls	.LCB626
 670 0052 38E1     		b	.L95	@long jump
 671              	.LCB626:
 845:.\Generated_Source\PSoC4/Bootloader.c ****             {
 672              		.loc 1 845 0
 673 0054 9279     		ldrb	r2, [r2, #6]
 674 0056 172A     		cmp	r2, #23
 675 0058 5FD1     		bne	.L123
 849:.\Generated_Source\PSoC4/Bootloader.c ****                                                                         pktSize + Bootloader_DATA_A
 676              		.loc 1 849 0
 677 005a E318     		add	r3, r4, r3
 678              	.LVL77:
 679              	.L122:
 680              	.LBB31:
 681              	.LBB32:
 153:.\Generated_Source\PSoC4/Bootloader.c ****         }
 682              		.loc 1 153 0
 683 005c 9BB2     		uxth	r3, r3
 684              	.LVL78:
 150:.\Generated_Source\PSoC4/Bootloader.c ****         {
 685              		.loc 1 150 0
 686 005e 002B     		cmp	r3, #0
 687 0060 08D0     		beq	.L126
 152:.\Generated_Source\PSoC4/Bootloader.c ****             size--;
 688              		.loc 1 152 0
 689 0062 BCAA     		add	r2, sp, #752
 690 0064 9A49     		ldr	r1, .L129+4
 691 0066 D218     		add	r2, r2, r3
 692 0068 5218     		add	r2, r2, r1
 693 006a 1278     		ldrb	r2, [r2]
 153:.\Generated_Source\PSoC4/Bootloader.c ****         }
 694              		.loc 1 153 0
 695 006c 013B     		sub	r3, r3, #1
 696              	.LVL79:
 152:.\Generated_Source\PSoC4/Bootloader.c ****             size--;
 697              		.loc 1 152 0
 698 006e 8018     		add	r0, r0, r2
 699              	.LVL80:
 700 0070 80B2     		uxth	r0, r0
 701              	.LVL81:
 702 0072 F3E7     		b	.L122
 703              	.LVL82:
 704              	.L126:
 705              	.LBE32:
 706              	.LBE31:
 838:.\Generated_Source\PSoC4/Bootloader.c ****                                    packetBuffer[Bootloader_CHK_ADDR(pktSize)];
 707              		.loc 1 838 0
 708 0074 6346     		mov	r3, ip
 709              	.LVL83:
 710              	.LBB34:
 711              	.LBB33:
ARM GAS  C:\Users\PC69\AppData\Local\Temp\cchFQXNr.s 			page 48


 156:.\Generated_Source\PSoC4/Bootloader.c **** 
 712              		.loc 1 156 0
 713 0076 4042     		neg	r0, r0
 714              	.LVL84:
 715              	.LBE33:
 716              	.LBE34:
 849:.\Generated_Source\PSoC4/Bootloader.c ****                                                                         pktSize + Bootloader_DATA_A
 717              		.loc 1 849 0
 718 0078 029F     		ldr	r7, [sp, #8]
 838:.\Generated_Source\PSoC4/Bootloader.c ****                                    packetBuffer[Bootloader_CHK_ADDR(pktSize)];
 719              		.loc 1 838 0
 720 007a 1B02     		lsl	r3, r3, #8
 849:.\Generated_Source\PSoC4/Bootloader.c ****                                                                         pktSize + Bootloader_DATA_A
 721              		.loc 1 849 0
 722 007c 80B2     		uxth	r0, r0
 723 007e 1F43     		orr	r7, r3
 852:.\Generated_Source\PSoC4/Bootloader.c ****             }
 724              		.loc 1 852 0
 725 0080 0823     		mov	r3, #8
 849:.\Generated_Source\PSoC4/Bootloader.c ****                                                                         pktSize + Bootloader_DATA_A
 726              		.loc 1 849 0
 727 0082 8742     		cmp	r7, r0
 728 0084 49D1     		bne	.L123
 729 0086 75E0     		b	.L127
 730              	.LVL85:
 731              	.L78:
 732              	.LBB35:
1029:.\Generated_Source\PSoC4/Bootloader.c ****                 {
 733              		.loc 1 1029 0
 734 0088 342B     		cmp	r3, #52
 735 008a 00D0     		beq	.LCB688
 736 008c B3E0     		b	.L79	@long jump
 737              	.LCB688:
1031:.\Generated_Source\PSoC4/Bootloader.c ****                     {
 738              		.loc 1 1031 0
 739 008e 019B     		ldr	r3, [sp, #4]
 740 0090 012B     		cmp	r3, #1
 741 0092 00D0     		beq	.LCB691
 742 0094 15E1     		b	.L93	@long jump
 743              	.LCB691:
 744 0096 032C     		cmp	r4, #3
 745 0098 00D0     		beq	.LCB693
 746 009a 12E1     		b	.L93	@long jump
 747              	.LCB693:
 748              	.LVL86:
1053:.\Generated_Source\PSoC4/Bootloader.c ****                         #endif  /* (CY_PSOC3) */
 749              		.loc 1 1053 0
 750 009c 71A8     		add	r0, sp, #452
 751 009e 0021     		mov	r1, #0
 752 00a0 8022     		mov	r2, #128
 753 00a2 FFF7FEFF 		bl	memset
 754              	.LVL87:
1047:.\Generated_Source\PSoC4/Bootloader.c ****                         #endif  /* (!CY_PSOC4) */
 755              		.loc 1 1047 0
 756 00a6 8026     		mov	r6, #128
 757              	.LVL88:
 758              	.L80:
ARM GAS  C:\Users\PC69\AppData\Local\Temp\cchFQXNr.s 			page 49


1074:.\Generated_Source\PSoC4/Bootloader.c ****                                       &packetBuffer[Bootloader_DATA_ADDR + 3u],
 759              		.loc 1 1074 0
 760 00a8 8F21     		mov	r1, #143
 761 00aa 71AB     		add	r3, sp, #452
 762 00ac 9819     		add	r0, r3, r6
1076:.\Generated_Source\PSoC4/Bootloader.c ****                     #endif  /* (CY_PSOC3) */
 763              		.loc 1 1076 0
 764 00ae E21E     		sub	r2, r4, #3
1074:.\Generated_Source\PSoC4/Bootloader.c ****                                       &packetBuffer[Bootloader_DATA_ADDR + 3u],
 765              		.loc 1 1074 0
 766 00b0 04AB     		add	r3, sp, #16
1079:.\Generated_Source\PSoC4/Bootloader.c **** 
 767              		.loc 1 1079 0
 768 00b2 3419     		add	r4, r6, r4
 769              	.LVL89:
1074:.\Generated_Source\PSoC4/Bootloader.c ****                                       &packetBuffer[Bootloader_DATA_ADDR + 3u],
 770              		.loc 1 1074 0
 771 00b4 C918     		add	r1, r1, r3
1103:.\Generated_Source\PSoC4/Bootloader.c ****                     {
 772              		.loc 1 1103 0
 773 00b6 A4B2     		uxth	r4, r4
1074:.\Generated_Source\PSoC4/Bootloader.c ****                                       &packetBuffer[Bootloader_DATA_ADDR + 3u],
 774              		.loc 1 1074 0
 775 00b8 FFF7FEFF 		bl	memcpy
 776              	.LVL90:
1103:.\Generated_Source\PSoC4/Bootloader.c ****                     {
 777              		.loc 1 1103 0
 778 00bc 832C     		cmp	r4, #131
 779 00be 00D0     		beq	.LCB724
 780 00c0 F6E0     		b	.L108	@long jump
 781              	.LCB724:
 782              	.LVL91:
 783              	.LBB23:
1109:.\Generated_Source\PSoC4/Bootloader.c ****                                               packetBuffer[Bootloader_DATA_ADDR + 1u];
 784              		.loc 1 1109 0
 785 00c2 AB79     		ldrb	r3, [r5, #6]
 786 00c4 6A79     		ldrb	r2, [r5, #5]
 787 00c6 1B02     		lsl	r3, r3, #8
 788 00c8 1343     		orr	r3, r2
1122:.\Generated_Source\PSoC4/Bootloader.c **** 
 789              		.loc 1 1122 0
 790 00ca 029A     		ldr	r2, [sp, #8]
 791 00cc 1602     		lsl	r6, r2, #8
 792 00ce 9E19     		add	r6, r3, r6
1130:.\Generated_Source\PSoC4/Bootloader.c ****                         if ((*Bootloader_SizeBytesAccess % CYDEV_FLS_ROW_SIZE) != 0u)
 793              		.loc 1 1130 0
 794 00d0 804B     		ldr	r3, .L129+8
1122:.\Generated_Source\PSoC4/Bootloader.c **** 
 795              		.loc 1 1122 0
 796 00d2 B6B2     		uxth	r6, r6
 797              	.LVL92:
1130:.\Generated_Source\PSoC4/Bootloader.c ****                         if ((*Bootloader_SizeBytesAccess % CYDEV_FLS_ROW_SIZE) != 0u)
 798              		.loc 1 1130 0
 799 00d4 1B68     		ldr	r3, [r3]
 800 00d6 1A68     		ldr	r2, [r3]
 801 00d8 D309     		lsr	r3, r2, #7
 802 00da 9BB2     		uxth	r3, r3
ARM GAS  C:\Users\PC69\AppData\Local\Temp\cchFQXNr.s 			page 50


 803              	.LVL93:
1131:.\Generated_Source\PSoC4/Bootloader.c ****                         {
 804              		.loc 1 1131 0
 805 00dc 5206     		lsl	r2, r2, #25
 806 00de 01D0     		beq	.L81
1133:.\Generated_Source\PSoC4/Bootloader.c ****                         }
 807              		.loc 1 1133 0
 808 00e0 0133     		add	r3, r3, #1
 809              	.LVL94:
 810 00e2 9BB2     		uxth	r3, r3
 811              	.LVL95:
 812              	.L81:
1137:.\Generated_Source\PSoC4/Bootloader.c ****                         {
 813              		.loc 1 1137 0
 814 00e4 9E42     		cmp	r6, r3
 815 00e6 00D2     		bcs	.LCB756
 816 00e8 E6E0     		b	.L109	@long jump
 817              	.LCB756:
1282:.\Generated_Source\PSoC4/Bootloader.c ****                             {
 818              		.loc 1 1282 0
 819 00ea 039B     		ldr	r3, [sp, #12]
 820              	.LVL96:
 821 00ec 002B     		cmp	r3, #0
 822 00ee 0AD1     		bne	.L82
 823              	.LBB24:
1293:.\Generated_Source\PSoC4/Bootloader.c ****                                 #endif  /* (CY_PSOC3) */
 824              		.loc 1 1293 0
 825 00f0 191C     		mov	r1, r3
 826 00f2 8022     		mov	r2, #128
 827 00f4 06A8     		add	r0, sp, #24
 828 00f6 FFF7FEFF 		bl	memset
 829              	.LVL97:
1312:.\Generated_Source\PSoC4/Bootloader.c ****                                             Bootloader_MD_ROW_NUM(Bootloader_notActiveApp),
 830              		.loc 1 1312 0
 831 00fa FF20     		mov	r0, #255
 832 00fc 06A9     		add	r1, sp, #24
 833 00fe FFF7FEFF 		bl	CySysFlashWriteRow
 834              	.LVL98:
1326:.\Generated_Source\PSoC4/Bootloader.c ****                             }
 835              		.loc 1 1326 0
 836 0102 0123     		mov	r3, #1
 837 0104 0393     		str	r3, [sp, #12]
 838              	.LVL99:
 839              	.L82:
 840              	.LBE24:
1338:.\Generated_Source\PSoC4/Bootloader.c ****                                 ? Bootloader_ERR_ROW \
 841              		.loc 1 1338 0
 842 0106 301C     		mov	r0, r6
 843 0108 71A9     		add	r1, sp, #452
 844 010a FFF7FEFF 		bl	CySysFlashWriteRow
 845              	.LVL100:
 846 010e 0123     		mov	r3, #1
 847              	.LBE23:
1364:.\Generated_Source\PSoC4/Bootloader.c ****                 }
 848              		.loc 1 1364 0
 849 0110 061E     		sub	r6, r0, #0
 850              	.LVL101:
ARM GAS  C:\Users\PC69\AppData\Local\Temp\cchFQXNr.s 			page 51


 851              	.LBB25:
1338:.\Generated_Source\PSoC4/Bootloader.c ****                                 ? Bootloader_ERR_ROW \
 852              		.loc 1 1338 0
 853 0112 0193     		str	r3, [sp, #4]
 854 0114 00D0     		beq	.LCB795
 855 0116 D1E0     		b	.L110	@long jump
 856              	.LCB795:
 857              	.LVL102:
 858              	.L125:
 859              	.LBE25:
1432:.\Generated_Source\PSoC4/Bootloader.c **** 
 860              		.loc 1 1432 0
 861 0118 0023     		mov	r3, #0
 862              	.LVL103:
 863              	.L123:
 864              	.LBE35:
 860:.\Generated_Source\PSoC4/Bootloader.c ****         if(ackCode == CYRET_SUCCESS)
 865              		.loc 1 860 0
 866 011a 0021     		mov	r1, #0
 867              	.L75:
 868              	.LVL104:
 869              	.LBB36:
 870              	.LBB37:
1645:.\Generated_Source\PSoC4/Bootloader.c ****     buffer[Bootloader_CMD_ADDR]      = status;
 871              		.loc 1 1645 0
 872 011c 0120     		mov	r0, #1
1646:.\Generated_Source\PSoC4/Bootloader.c ****     buffer[Bootloader_SIZE_ADDR]     = LO8(size);
 873              		.loc 1 1646 0
 874 011e 6B70     		strb	r3, [r5, #1]
1648:.\Generated_Source\PSoC4/Bootloader.c **** 
 875              		.loc 1 1648 0
 876 0120 0023     		mov	r3, #0
 877              	.LVL105:
 878 0122 04AA     		add	r2, sp, #16
 879 0124 0632     		add	r2, r2, #6
1645:.\Generated_Source\PSoC4/Bootloader.c ****     buffer[Bootloader_CMD_ADDR]      = status;
 880              		.loc 1 1645 0
 881 0126 2870     		strb	r0, [r5]
1651:.\Generated_Source\PSoC4/Bootloader.c **** 
 882              		.loc 1 1651 0
 883 0128 081D     		add	r0, r1, #4
 884 012a 1180     		strh	r1, [r2]
 885              	.LVL106:
1647:.\Generated_Source\PSoC4/Bootloader.c ****     buffer[Bootloader_SIZE_ADDR + 1u] = HI8(size);
 886              		.loc 1 1647 0
 887 012c A970     		strb	r1, [r5, #2]
1648:.\Generated_Source\PSoC4/Bootloader.c **** 
 888              		.loc 1 1648 0
 889 012e EB70     		strb	r3, [r5, #3]
1651:.\Generated_Source\PSoC4/Bootloader.c **** 
 890              		.loc 1 1651 0
 891 0130 80B2     		uxth	r0, r0
 892              	.LVL107:
 893              	.L91:
 894              	.LBB38:
 895              	.LBB39:
 152:.\Generated_Source\PSoC4/Bootloader.c ****             size--;
ARM GAS  C:\Users\PC69\AppData\Local\Temp\cchFQXNr.s 			page 52


 896              		.loc 1 152 0
 897 0132 BCAC     		add	r4, sp, #752
 898 0134 664F     		ldr	r7, .L129+4
 899 0136 2418     		add	r4, r4, r0
 900 0138 E419     		add	r4, r4, r7
 901 013a 2478     		ldrb	r4, [r4]
 153:.\Generated_Source\PSoC4/Bootloader.c ****         }
 902              		.loc 1 153 0
 903 013c 0138     		sub	r0, r0, #1
 904              	.LVL108:
 152:.\Generated_Source\PSoC4/Bootloader.c ****             size--;
 905              		.loc 1 152 0
 906 013e 1B19     		add	r3, r3, r4
 907              	.LVL109:
 153:.\Generated_Source\PSoC4/Bootloader.c ****         }
 908              		.loc 1 153 0
 909 0140 80B2     		uxth	r0, r0
 152:.\Generated_Source\PSoC4/Bootloader.c ****             size--;
 910              		.loc 1 152 0
 911 0142 9BB2     		uxth	r3, r3
 912              	.LVL110:
 150:.\Generated_Source\PSoC4/Bootloader.c ****         {
 913              		.loc 1 150 0
 914 0144 0028     		cmp	r0, #0
 915 0146 F4D1     		bne	.L91
 916              	.LBE39:
 917              	.LBE38:
1653:.\Generated_Source\PSoC4/Bootloader.c ****     buffer[Bootloader_CHK_ADDR(1u + size)] = HI8(checksum);
 918              		.loc 1 1653 0
 919 0148 BCA8     		add	r0, sp, #752
 920              	.LVL111:
 921 014a 634C     		ldr	r4, .L129+12
 922 014c 4018     		add	r0, r0, r1
 923              	.LBB42:
 924              	.LBB40:
 156:.\Generated_Source\PSoC4/Bootloader.c **** 
 925              		.loc 1 156 0
 926 014e 5B42     		neg	r3, r3
 927              	.LVL112:
 928              	.LBE40:
 929              	.LBE42:
1653:.\Generated_Source\PSoC4/Bootloader.c ****     buffer[Bootloader_CHK_ADDR(1u + size)] = HI8(checksum);
 930              		.loc 1 1653 0
 931 0150 0419     		add	r4, r0, r4
 932              	.LBB43:
 933              	.LBB41:
 156:.\Generated_Source\PSoC4/Bootloader.c **** 
 934              		.loc 1 156 0
 935 0152 9BB2     		uxth	r3, r3
 936              	.LVL113:
 937              	.LBE41:
 938              	.LBE43:
1653:.\Generated_Source\PSoC4/Bootloader.c ****     buffer[Bootloader_CHK_ADDR(1u + size)] = HI8(checksum);
 939              		.loc 1 1653 0
 940 0154 2370     		strb	r3, [r4]
 941              	.LVL114:
1654:.\Generated_Source\PSoC4/Bootloader.c ****     buffer[Bootloader_EOP_ADDR(size)]     = Bootloader_EOP;
ARM GAS  C:\Users\PC69\AppData\Local\Temp\cchFQXNr.s 			page 53


 942              		.loc 1 1654 0
 943 0156 614C     		ldr	r4, .L129+16
 944 0158 1B0A     		lsr	r3, r3, #8
 945 015a 0419     		add	r4, r0, r4
 946 015c 2370     		strb	r3, [r4]
1655:.\Generated_Source\PSoC4/Bootloader.c **** 
 947              		.loc 1 1655 0
 948 015e 604B     		ldr	r3, .L129+20
1658:.\Generated_Source\PSoC4/Bootloader.c **** }
 949              		.loc 1 1658 0
 950 0160 0731     		add	r1, r1, #7
 951              	.LVL115:
1655:.\Generated_Source\PSoC4/Bootloader.c **** 
 952              		.loc 1 1655 0
 953 0162 C318     		add	r3, r0, r3
 954 0164 1720     		mov	r0, #23
1658:.\Generated_Source\PSoC4/Bootloader.c **** }
 955              		.loc 1 1658 0
 956 0166 89B2     		uxth	r1, r1
1655:.\Generated_Source\PSoC4/Bootloader.c **** 
 957              		.loc 1 1655 0
 958 0168 1870     		strb	r0, [r3]
1658:.\Generated_Source\PSoC4/Bootloader.c **** }
 959              		.loc 1 1658 0
 960 016a 281C     		mov	r0, r5
 961 016c 9623     		mov	r3, #150
 962 016e FFF7FEFF 		bl	CyBtldrCommWrite
 963              	.LVL116:
 964 0172 4FE7     		b	.L69
 965              	.LVL117:
 966              	.L127:
 967              	.LBE37:
 968              	.LBE36:
 969              	.LBB44:
 863:.\Generated_Source\PSoC4/Bootloader.c **** 
 970              		.loc 1 863 0
 971 0174 26AF     		add	r7, sp, #152
 972 0176 3B79     		ldrb	r3, [r7, #4]
 973 0178 0293     		str	r3, [sp, #8]
 974              	.LVL118:
 866:.\Generated_Source\PSoC4/Bootloader.c ****             {
 975              		.loc 1 866 0
 976 017a 7B78     		ldrb	r3, [r7, #1]
 977 017c 181C     		mov	r0, r3
 978 017e 3138     		sub	r0, r0, #49
 979 0180 0A28     		cmp	r0, #10
 980 0182 01D9     		bls	.L128
 981              	.L117:
1607:.\Generated_Source\PSoC4/Bootloader.c ****                 break;
 982              		.loc 1 1607 0
 983 0184 0523     		mov	r3, #5
 984 0186 C8E7     		b	.L123
 985              	.L128:
 866:.\Generated_Source\PSoC4/Bootloader.c ****             {
 986              		.loc 1 866 0
 987 0188 FFF7FEFF 		bl	__gnu_thumb1_case_shi
 988              	.L92:
ARM GAS  C:\Users\PC69\AppData\Local\Temp\cchFQXNr.s 			page 54


 989 018c 0B00     		.2byte	(.L74-.L92)/2
 990 018e 1900     		.2byte	(.L76-.L92)/2
 991 0190 FCFF     		.2byte	(.L117-.L92)/2
 992 0192 7EFF     		.2byte	(.L78-.L92)/2
 993 0194 3B00     		.2byte	(.L83-.L92)/2
 994 0196 FCFF     		.2byte	(.L117-.L92)/2
 995 0198 3F00     		.2byte	(.L85-.L92)/2
 996 019a 4F00     		.2byte	(.L86-.L92)/2
 997 019c 7EFF     		.2byte	(.L78-.L92)/2
 998 019e 5E00     		.2byte	(.L87-.L92)/2
 999 01a0 8700     		.2byte	(.L89-.L92)/2
 1000              		.p2align 1
 1001              	.L74:
 913:.\Generated_Source\PSoC4/Bootloader.c ****                 {
 1002              		.loc 1 913 0
 1003 01a2 019B     		ldr	r3, [sp, #4]
 1004 01a4 012B     		cmp	r3, #1
 1005 01a6 00D0     		beq	.LCB966
 1006 01a8 8BE0     		b	.L93	@long jump
 1007              	.LCB966:
 1008 01aa 002C     		cmp	r4, #0
 1009 01ac 00D0     		beq	.LCB968
 1010 01ae 88E0     		b	.L93	@long jump
 1011              	.LCB968:
 916:.\Generated_Source\PSoC4/Bootloader.c **** 
 1012              		.loc 1 916 0
 1013 01b0 201C     		mov	r0, r4
 1014 01b2 FFF7FEFF 		bl	Bootloader_ValidateBootloadable
 1015              	.LVL119:
 1016 01b6 4342     		neg	r3, r0
 1017 01b8 4341     		adc	r3, r3, r0
 915:.\Generated_Source\PSoC4/Bootloader.c ****                             (uint8)(Bootloader_ValidateBootloadable(Bootloader_activeApp) == CYRET_
 1018              		.loc 1 915 0
 1019 01ba 3B71     		strb	r3, [r7, #4]
 1020              	.LVL120:
 1021 01bc 6AE0     		b	.L124
 1022              	.LVL121:
 1023              	.L76:
 937:.\Generated_Source\PSoC4/Bootloader.c ****                     {
 1024              		.loc 1 937 0
 1025 01be 019B     		ldr	r3, [sp, #4]
 1026 01c0 012B     		cmp	r3, #1
 1027 01c2 7ED1     		bne	.L93
 1028 01c4 012C     		cmp	r4, #1
 1029 01c6 7CD1     		bne	.L93
 939:.\Generated_Source\PSoC4/Bootloader.c ****                         {
 1030              		.loc 1 939 0
 1031 01c8 029B     		ldr	r3, [sp, #8]
 1032 01ca 002B     		cmp	r3, #0
 1033 01cc 79D1     		bne	.L93
 1034              	.LBB26:
 956:.\Generated_Source\PSoC4/Bootloader.c **** 
 1035              		.loc 1 956 0
 1036 01ce 414B     		ldr	r3, .L129+8
 1037 01d0 1B68     		ldr	r3, [r3]
 1038 01d2 1B68     		ldr	r3, [r3]
 1039              	.LVL122:
ARM GAS  C:\Users\PC69\AppData\Local\Temp\cchFQXNr.s 			page 55


 1040 01d4 DA0B     		lsr	r2, r3, #15
 958:.\Generated_Source\PSoC4/Bootloader.c ****                             {
 1041              		.loc 1 958 0
 1042 01d6 D2B2     		uxtb	r2, r2
 960:.\Generated_Source\PSoC4/Bootloader.c ****                                             Bootloader_NUMBER_OF_ROWS_IN_ARRAY;
 1043              		.loc 1 960 0
 1044 01d8 DB09     		lsr	r3, r3, #7
 1045              	.LVL123:
 1046 01da DBB2     		uxtb	r3, r3
 958:.\Generated_Source\PSoC4/Bootloader.c ****                             {
 1047              		.loc 1 958 0
 1048 01dc 002A     		cmp	r2, #0
 1049 01de 01D0     		beq	.L77
 969:.\Generated_Source\PSoC4/Bootloader.c ****                             }
 1050              		.loc 1 969 0
 1051 01e0 8023     		mov	r3, #128
 1052 01e2 5B00     		lsl	r3, r3, #1
 1053              	.L77:
 1054              	.LVL124:
 972:.\Generated_Source\PSoC4/Bootloader.c ****                             packetBuffer[Bootloader_DATA_ADDR + 1u] = HI8(startRow);
 1055              		.loc 1 972 0
 1056 01e4 2B71     		strb	r3, [r5, #4]
 1057              	.LVL125:
 973:.\Generated_Source\PSoC4/Bootloader.c **** 
 1058              		.loc 1 973 0
 1059 01e6 1B0A     		lsr	r3, r3, #8
 1060              	.LVL126:
 1061 01e8 6B71     		strb	r3, [r5, #5]
 975:.\Generated_Source\PSoC4/Bootloader.c ****                                         LO8(Bootloader_NUMBER_OF_ROWS_IN_ARRAY - 1u);
 1062              		.loc 1 975 0
 1063 01ea FF23     		mov	r3, #255
 1064 01ec AB71     		strb	r3, [r5, #6]
 978:.\Generated_Source\PSoC4/Bootloader.c ****                                         HI8(Bootloader_NUMBER_OF_ROWS_IN_ARRAY - 1u);
 1065              		.loc 1 978 0
 1066 01ee 0023     		mov	r3, #0
 981:.\Generated_Source\PSoC4/Bootloader.c ****                             ackCode = CYRET_SUCCESS;
 1067              		.loc 1 981 0
 1068 01f0 0421     		mov	r1, #4
 978:.\Generated_Source\PSoC4/Bootloader.c ****                                         HI8(Bootloader_NUMBER_OF_ROWS_IN_ARRAY - 1u);
 1069              		.loc 1 978 0
 1070 01f2 EB71     		strb	r3, [r5, #7]
 1071              	.LVL127:
 1072 01f4 92E7     		b	.L75
 1073              	.LVL128:
 1074              	.L79:
 1075              	.LBE26:
1065:.\Generated_Source\PSoC4/Bootloader.c ****                 {
 1076              		.loc 1 1065 0
 1077 01f6 019B     		ldr	r3, [sp, #4]
 1078 01f8 012B     		cmp	r3, #1
 1079 01fa 62D1     		bne	.L93
 1080 01fc 022C     		cmp	r4, #2
 1081 01fe 60D9     		bls	.L93
 1082 0200 52E7     		b	.L80
 1083              	.LVL129:
 1084              	.L83:
1376:.\Generated_Source\PSoC4/Bootloader.c ****                 {
ARM GAS  C:\Users\PC69\AppData\Local\Temp\cchFQXNr.s 			page 56


 1085              		.loc 1 1376 0
 1086 0202 019B     		ldr	r3, [sp, #4]
 1087 0204 012B     		cmp	r3, #1
 1088 0206 5CD1     		bne	.L93
 1089 0208 03E7     		b	.L111
 1090              	.L85:
1427:.\Generated_Source\PSoC4/Bootloader.c ****                     {
 1091              		.loc 1 1427 0
 1092 020a 019B     		ldr	r3, [sp, #4]
 1093 020c 012B     		cmp	r3, #1
 1094 020e 58D1     		bne	.L93
1430:.\Generated_Source\PSoC4/Bootloader.c ****                         {
 1095              		.loc 1 1430 0
 1096 0210 2C33     		add	r3, r3, #44
 1097 0212 3719     		add	r7, r6, r4
 1098 0214 FF33     		add	r3, r3, #255
 1099 0216 9F42     		cmp	r7, r3
 1100 0218 55DC     		bgt	.L95
 1101              	.LVL130:
1439:.\Generated_Source\PSoC4/Bootloader.c ****                                               &packetBuffer[Bootloader_DATA_ADDR],
 1102              		.loc 1 1439 0
 1103 021a 71AB     		add	r3, sp, #452
 1104 021c 9819     		add	r0, r3, r6
 1105 021e 27A9     		add	r1, sp, #156
 1106 0220 221C     		mov	r2, r4
 1107 0222 FFF7FEFF 		bl	memcpy
 1108              	.LVL131:
1444:.\Generated_Source\PSoC4/Bootloader.c ****                         }
 1109              		.loc 1 1444 0
 1110 0226 BEB2     		uxth	r6, r7
 1111 0228 76E7     		b	.L125
 1112              	.LVL132:
 1113              	.L86:
1462:.\Generated_Source\PSoC4/Bootloader.c ****                 {
 1114              		.loc 1 1462 0
 1115 022a 002C     		cmp	r4, #0
 1116 022c 49D1     		bne	.L93
 1117              	.LBB27:
1471:.\Generated_Source\PSoC4/Bootloader.c ****                             {CYDEV_CHIP_JTAG_ID, CYDEV_CHIP_REV_EXPECT, Bootloader_VERSION};
 1118              		.loc 1 1471 0
 1119 022e 06AB     		add	r3, sp, #24
 1120 0230 191C     		mov	r1, r3
 1121 0232 2C4A     		ldr	r2, .L129+24
 1122 0234 81CA     		ldmia	r2!, {r0, r7}
 1123 0236 81C1     		stmia	r1!, {r0, r7}
 1124              	.LVL133:
1485:.\Generated_Source\PSoC4/Bootloader.c ****                                       &BtldrVersion,
 1125              		.loc 1 1485 0
 1126 0238 27AA     		add	r2, sp, #156
 1127 023a 03CB     		ldmia	r3!, {r0, r1}
 1128 023c 03C2     		stmia	r2!, {r0, r1}
 1129              	.LVL134:
1476:.\Generated_Source\PSoC4/Bootloader.c **** 
 1130              		.loc 1 1476 0
 1131 023e 0123     		mov	r3, #1
1478:.\Generated_Source\PSoC4/Bootloader.c **** 
 1132              		.loc 1 1478 0
ARM GAS  C:\Users\PC69\AppData\Local\Temp\cchFQXNr.s 			page 57


 1133 0240 0821     		mov	r1, #8
1476:.\Generated_Source\PSoC4/Bootloader.c **** 
 1134              		.loc 1 1476 0
 1135 0242 0193     		str	r3, [sp, #4]
1490:.\Generated_Source\PSoC4/Bootloader.c ****                 }
 1136              		.loc 1 1490 0
 1137 0244 231C     		mov	r3, r4
 1138 0246 69E7     		b	.L75
 1139              	.LVL135:
 1140              	.L87:
 1141              	.LBE27:
1502:.\Generated_Source\PSoC4/Bootloader.c ****                 {
 1142              		.loc 1 1502 0
 1143 0248 019B     		ldr	r3, [sp, #4]
 1144 024a 012B     		cmp	r3, #1
 1145 024c 39D1     		bne	.L93
 1146 024e 032C     		cmp	r4, #3
 1147 0250 37D1     		bne	.L93
 1148              	.LBB28:
1505:.\Generated_Source\PSoC4/Bootloader.c ****                                                     packetBuffer[Bootloader_DATA_ADDR + 1u];
 1149              		.loc 1 1505 0
 1150 0252 AC79     		ldrb	r4, [r5, #6]
 1151              	.LVL136:
 1152 0254 6B79     		ldrb	r3, [r5, #5]
 1153 0256 2402     		lsl	r4, r4, #8
 1154 0258 1C43     		orr	r4, r3
 1155              	.LVL137:
1534:.\Generated_Source\PSoC4/Bootloader.c **** 
 1156              		.loc 1 1534 0
 1157 025a 029B     		ldr	r3, [sp, #8]
1536:.\Generated_Source\PSoC4/Bootloader.c ****                                                                              rowAddr,
 1158              		.loc 1 1536 0
 1159 025c 0020     		mov	r0, #0
1534:.\Generated_Source\PSoC4/Bootloader.c **** 
 1160              		.loc 1 1534 0
 1161 025e 1902     		lsl	r1, r3, #8
 1162 0260 6118     		add	r1, r4, r1
1533:.\Generated_Source\PSoC4/Bootloader.c ****                                             + ((uint32)rowNum * CYDEV_FLS_ROW_SIZE);
 1163              		.loc 1 1533 0
 1164 0262 C901     		lsl	r1, r1, #7
1536:.\Generated_Source\PSoC4/Bootloader.c ****                                                                              rowAddr,
 1165              		.loc 1 1536 0
 1166 0264 8022     		mov	r2, #128
 1167 0266 FFF7FEFF 		bl	Bootloader_Calc8BitSum
 1168              	.LVL138:
1567:.\Generated_Source\PSoC4/Bootloader.c ****                        (Bootloader_CONTAIN_METADATA(rowNum)))
 1169              		.loc 1 1567 0
 1170 026a 029B     		ldr	r3, [sp, #8]
1536:.\Generated_Source\PSoC4/Bootloader.c ****                                                                              rowAddr,
 1171              		.loc 1 1536 0
 1172 026c 071C     		mov	r7, r0
 1173              	.LVL139:
1567:.\Generated_Source\PSoC4/Bootloader.c ****                        (Bootloader_CONTAIN_METADATA(rowNum)))
 1174              		.loc 1 1567 0
 1175 026e 002B     		cmp	r3, #0
 1176 0270 0DD1     		bne	.L88
 1177 0272 FF2C     		cmp	r4, #255
ARM GAS  C:\Users\PC69\AppData\Local\Temp\cchFQXNr.s 			page 58


 1178 0274 0BD1     		bne	.L88
1571:.\Generated_Source\PSoC4/Bootloader.c ****                                                                  Bootloader_GET_APP_ID(rowNum));
 1179              		.loc 1 1571 0
 1180 0276 191C     		mov	r1, r3
 1181 0278 0520     		mov	r0, #5
 1182 027a FFF7FEFF 		bl	Bootloader_GetMetadata
 1183              	.LVL140:
1574:.\Generated_Source\PSoC4/Bootloader.c ****                                                                  Bootloader_GET_APP_ID(rowNum));
 1184              		.loc 1 1574 0
 1185 027e 0299     		ldr	r1, [sp, #8]
1571:.\Generated_Source\PSoC4/Bootloader.c ****                                                                  Bootloader_GET_APP_ID(rowNum));
 1186              		.loc 1 1571 0
 1187 0280 3F1A     		sub	r7, r7, r0
 1188              	.LVL141:
1574:.\Generated_Source\PSoC4/Bootloader.c ****                                                                  Bootloader_GET_APP_ID(rowNum));
 1189              		.loc 1 1574 0
 1190 0282 0620     		mov	r0, #6
 1191 0284 FFF7FEFF 		bl	Bootloader_GetMetadata
 1192              	.LVL142:
1571:.\Generated_Source\PSoC4/Bootloader.c ****                                                                  Bootloader_GET_APP_ID(rowNum));
 1193              		.loc 1 1571 0
 1194 0288 FFB2     		uxtb	r7, r7
 1195              	.LVL143:
1574:.\Generated_Source\PSoC4/Bootloader.c ****                                                                  Bootloader_GET_APP_ID(rowNum));
 1196              		.loc 1 1574 0
 1197 028a 3F1A     		sub	r7, r7, r0
 1198              	.LVL144:
 1199 028c FFB2     		uxtb	r7, r7
 1200              	.LVL145:
 1201              	.L88:
1578:.\Generated_Source\PSoC4/Bootloader.c ****                     ackCode = CYRET_SUCCESS;
 1202              		.loc 1 1578 0
 1203 028e 7F42     		neg	r7, r7
 1204              	.LVL146:
 1205 0290 26AB     		add	r3, sp, #152
 1206 0292 1F71     		strb	r7, [r3, #4]
 1207              	.LVL147:
 1208              	.L124:
1579:.\Generated_Source\PSoC4/Bootloader.c ****                     rspSize = 1u;
 1209              		.loc 1 1579 0
 1210 0294 0023     		mov	r3, #0
1580:.\Generated_Source\PSoC4/Bootloader.c ****                 }
 1211              		.loc 1 1580 0
 1212 0296 0121     		mov	r1, #1
 1213 0298 40E7     		b	.L75
 1214              	.LVL148:
 1215              	.L89:
 1216              	.LBE28:
1592:.\Generated_Source\PSoC4/Bootloader.c ****                 {
 1217              		.loc 1 1592 0
 1218 029a 0020     		mov	r0, #0
 1219 029c FFF7FEFF 		bl	Bootloader_ValidateBootloadable
 1220              	.LVL149:
 1221 02a0 0028     		cmp	r0, #0
 1222 02a2 02D1     		bne	.L90
1594:.\Generated_Source\PSoC4/Bootloader.c ****                 }
 1223              		.loc 1 1594 0
ARM GAS  C:\Users\PC69\AppData\Local\Temp\cchFQXNr.s 			page 59


 1224 02a4 8022     		mov	r2, #128
 1225 02a6 104B     		ldr	r3, .L129+28
 1226 02a8 1A60     		str	r2, [r3]
 1227              	.L90:
1597:.\Generated_Source\PSoC4/Bootloader.c **** 
 1228              		.loc 1 1597 0
 1229 02aa FFF7FEFF 		bl	CySoftwareReset
 1230              	.LVL150:
 1231 02ae 08E0     		b	.L93
 1232              	.LVL151:
 1233              	.L108:
1103:.\Generated_Source\PSoC4/Bootloader.c ****                     {
 1234              		.loc 1 1103 0
 1235 02b0 0123     		mov	r3, #1
1364:.\Generated_Source\PSoC4/Bootloader.c ****                 }
 1236              		.loc 1 1364 0
 1237 02b2 0026     		mov	r6, #0
1103:.\Generated_Source\PSoC4/Bootloader.c ****                     {
 1238              		.loc 1 1103 0
 1239 02b4 0193     		str	r3, [sp, #4]
 1240 02b6 06E0     		b	.L95
 1241              	.LVL152:
 1242              	.L109:
 1243              	.LBB29:
1137:.\Generated_Source\PSoC4/Bootloader.c ****                         {
 1244              		.loc 1 1137 0
 1245 02b8 0123     		mov	r3, #1
 1246              	.LVL153:
 1247 02ba 0193     		str	r3, [sp, #4]
 1248              	.LVL154:
 1249              	.L110:
 1250              	.LBE29:
1364:.\Generated_Source\PSoC4/Bootloader.c ****                 }
 1251              		.loc 1 1364 0
 1252 02bc 0026     		mov	r6, #0
 1253              	.LBB30:
1338:.\Generated_Source\PSoC4/Bootloader.c ****                                 ? Bootloader_ERR_ROW \
 1254              		.loc 1 1338 0
 1255 02be 0933     		add	r3, r3, #9
 1256 02c0 2BE7     		b	.L123
 1257              	.LVL155:
 1258              	.L93:
 1259              	.LBE30:
 1260              	.LBE44:
 831:.\Generated_Source\PSoC4/Bootloader.c ****         }
 1261              		.loc 1 831 0
 1262 02c2 0423     		mov	r3, #4
 1263 02c4 29E7     		b	.L123
 1264              	.L95:
 843:.\Generated_Source\PSoC4/Bootloader.c ****             }
 1265              		.loc 1 843 0
 1266 02c6 0323     		mov	r3, #3
 1267              	.LVL156:
 1268 02c8 27E7     		b	.L123
 1269              	.L130:
 1270 02ca C046     		.align	2
 1271              	.L129:
ARM GAS  C:\Users\PC69\AppData\Local\Temp\cchFQXNr.s 			page 60


 1272 02cc 0CFDFFFF 		.word	-756
 1273 02d0 A7FDFFFF 		.word	-601
 1274 02d4 00000000 		.word	.LANCHOR0
 1275 02d8 ACFDFFFF 		.word	-596
 1276 02dc ADFDFFFF 		.word	-595
 1277 02e0 AEFDFFFF 		.word	-594
 1278 02e4 00000000 		.word	.LANCHOR1
 1279 02e8 00000000 		.word	cyBtldrRunType
 1280              		.cfi_endproc
 1281              	.LFE45:
 1282              		.size	Bootloader_HostLink.constprop.0, .-Bootloader_HostLink.constprop.0
 1283              		.section	.text.Bootloader_Start,"ax",%progbits
 1284              		.align	1
 1285              		.global	Bootloader_Start
 1286              		.code	16
 1287              		.thumb_func
 1288              		.type	Bootloader_Start, %function
 1289              	Bootloader_Start:
 1290              	.LFB35:
 244:.\Generated_Source\PSoC4/Bootloader.c ****     #if(0u != Bootloader_BOOTLOADER_APP_VALIDATION)
 1291              		.loc 1 244 0
 1292              		.cfi_startproc
 1293              	.LVL157:
 1294 0000 38B5     		push	{r3, r4, r5, lr}
 1295              		.cfi_def_cfa_offset 16
 1296              		.cfi_offset 3, -16
 1297              		.cfi_offset 4, -12
 1298              		.cfi_offset 5, -8
 1299              		.cfi_offset 14, -4
 346:.\Generated_Source\PSoC4/Bootloader.c ****         {
 1300              		.loc 1 346 0
 1301 0002 0020     		mov	r0, #0
 1302 0004 FFF7FEFF 		bl	Bootloader_ValidateBootloadable
 1303              	.LVL158:
 348:.\Generated_Source\PSoC4/Bootloader.c ****         }
 1304              		.loc 1 348 0
 1305 0008 431E     		sub	r3, r0, #1
 1306 000a 9841     		sbc	r0, r0, r3
 260:.\Generated_Source\PSoC4/Bootloader.c **** 
 1307              		.loc 1 260 0
 1308 000c 0624     		mov	r4, #6
 390:.\Generated_Source\PSoC4/Bootloader.c **** 
 1309              		.loc 1 390 0
 1310 000e 134D     		ldr	r5, .L141
 348:.\Generated_Source\PSoC4/Bootloader.c ****         }
 1311              		.loc 1 348 0
 1312 0010 4042     		neg	r0, r0
 390:.\Generated_Source\PSoC4/Bootloader.c **** 
 1313              		.loc 1 390 0
 1314 0012 2B68     		ldr	r3, [r5]
 348:.\Generated_Source\PSoC4/Bootloader.c ****         }
 1315              		.loc 1 348 0
 1316 0014 0440     		and	r4, r0
 1317              	.LVL159:
 388:.\Generated_Source\PSoC4/Bootloader.c ****                 Bootloader_MD_BTLDR_ADDR_PTR,
 1318              		.loc 1 388 0
 1319 0016 1A68     		ldr	r2, [r3]
ARM GAS  C:\Users\PC69\AppData\Local\Temp\cchFQXNr.s 			page 61


 1320 0018 0020     		mov	r0, #0
 1321 001a C03A     		sub	r2, r2, #192
 1322 001c C021     		mov	r1, #192
 1323 001e FFF7FEFF 		bl	Bootloader_Calc8BitSum
 1324              	.LVL160:
 393:.\Generated_Source\PSoC4/Bootloader.c ****         calcedChecksum = ( uint8 )1u + ( uint8 )(~calcedChecksum);
 1325              		.loc 1 393 0
 1326 0022 6B68     		ldr	r3, [r5, #4]
 1327 0024 1B78     		ldrb	r3, [r3]
 1328              	.LVL161:
 394:.\Generated_Source\PSoC4/Bootloader.c **** 
 1329              		.loc 1 394 0
 1330 0026 181A     		sub	r0, r3, r0
 1331              	.LVL162:
 397:.\Generated_Source\PSoC4/Bootloader.c ****            (0u == *Bootloader_SizeBytesAccess))
 1332              		.loc 1 397 0
 1333 0028 C0B2     		uxtb	r0, r0
 1334 002a 9842     		cmp	r0, r3
 1335 002c 03D1     		bne	.L133
 398:.\Generated_Source\PSoC4/Bootloader.c ****         {
 1336              		.loc 1 398 0 discriminator 1
 1337 002e 2B68     		ldr	r3, [r5]
 397:.\Generated_Source\PSoC4/Bootloader.c ****            (0u == *Bootloader_SizeBytesAccess))
 1338              		.loc 1 397 0 discriminator 1
 1339 0030 1B68     		ldr	r3, [r3]
 1340 0032 002B     		cmp	r3, #0
 1341 0034 02D1     		bne	.L134
 1342              	.L133:
 400:.\Generated_Source\PSoC4/Bootloader.c ****         }
 1343              		.loc 1 400 0
 1344 0036 0020     		mov	r0, #0
 1345 0038 FFF7FEFF 		bl	CyHalt
 1346              	.LVL163:
 1347              	.L134:
 413:.\Generated_Source\PSoC4/Bootloader.c ****         (CYRET_SUCCESS != validApp))
 1348              		.loc 1 413 0
 1349 003c 084B     		ldr	r3, .L141+4
 1350 003e 1968     		ldr	r1, [r3]
 1351 0040 1A1C     		mov	r2, r3
 1352 0042 4029     		cmp	r1, #64
 1353 0044 01D0     		beq	.L135
 413:.\Generated_Source\PSoC4/Bootloader.c ****         (CYRET_SUCCESS != validApp))
 1354              		.loc 1 413 0 is_stmt 0 discriminator 1
 1355 0046 002C     		cmp	r4, #0
 1356 0048 03D0     		beq	.L136
 1357              	.L135:
 416:.\Generated_Source\PSoC4/Bootloader.c **** 
 1358              		.loc 1 416 0 is_stmt 1
 1359 004a 0023     		mov	r3, #0
 1360 004c 1360     		str	r3, [r2]
 418:.\Generated_Source\PSoC4/Bootloader.c ****     }
 1361              		.loc 1 418 0
 1362 004e FFF7FEFF 		bl	Bootloader_HostLink.constprop.0
 1363              	.LVL164:
 1364              	.L136:
 1365              	.LBB47:
 1366              	.LBB48:
ARM GAS  C:\Users\PC69\AppData\Local\Temp\cchFQXNr.s 			page 62


 453:.\Generated_Source\PSoC4/Bootloader.c **** 
 1367              		.loc 1 453 0
 1368 0052 8022     		mov	r2, #128
 1369              	.LBE48:
 1370              	.LBE47:
 433:.\Generated_Source\PSoC4/Bootloader.c **** 
 1371              		.loc 1 433 0
 1372              		@ sp needed
 1373              	.LBB50:
 1374              	.LBB49:
 453:.\Generated_Source\PSoC4/Bootloader.c **** 
 1375              		.loc 1 453 0
 1376 0054 1A60     		str	r2, [r3]
 455:.\Generated_Source\PSoC4/Bootloader.c **** }
 1377              		.loc 1 455 0
 1378 0056 FFF7FEFF 		bl	CySoftwareReset
 1379              	.LVL165:
 1380              	.LVL166:
 1381              	.LBE49:
 1382              	.LBE50:
 433:.\Generated_Source\PSoC4/Bootloader.c **** 
 1383              		.loc 1 433 0
 1384 005a 38BD     		pop	{r3, r4, r5, pc}
 1385              	.L142:
 1386              		.align	2
 1387              	.L141:
 1388 005c 00000000 		.word	.LANCHOR0
 1389 0060 00000000 		.word	cyBtldrRunType
 1390              		.cfi_endproc
 1391              	.LFE35:
 1392              		.size	Bootloader_Start, .-Bootloader_Start
 1393              		.global	Bootloader_SizeBytesAccess
 1394              		.global	Bootloader_SizeBytes
 1395              		.global	Bootloader_ChecksumAccess
 1396              		.global	Bootloader_Checksum
 1397              		.section	.rodata
 1398              		.align	2
 1399              		.set	.LANCHOR1,. + 0
 1400              	.LC0:
 1401 0000 9311C804 		.word	80220563
 1402 0004 11       		.byte	17
 1403 0005 1E       		.byte	30
 1404 0006 01       		.byte	1
 1405 0007 01       		.byte	1
 1406              		.section	.bootloader,"a",%progbits
 1407              		.align	2
 1408              		.type	Bootloader_SizeBytes, %object
 1409              		.size	Bootloader_SizeBytes, 4
 1410              	Bootloader_SizeBytes:
 1411 0000 FFFFFFFF 		.word	-1
 1412              		.type	Bootloader_Checksum, %object
 1413              		.size	Bootloader_Checksum, 1
 1414              	Bootloader_Checksum:
 1415 0004 00       		.space	1
 1416 0005 000000   		.data
 1417              		.align	2
 1418              		.set	.LANCHOR0,. + 0
ARM GAS  C:\Users\PC69\AppData\Local\Temp\cchFQXNr.s 			page 63


 1419              		.type	Bootloader_SizeBytesAccess, %object
 1420              		.size	Bootloader_SizeBytesAccess, 4
 1421              	Bootloader_SizeBytesAccess:
 1422 0000 00000000 		.word	Bootloader_SizeBytes
 1423              		.type	Bootloader_ChecksumAccess, %object
 1424              		.size	Bootloader_ChecksumAccess, 4
 1425              	Bootloader_ChecksumAccess:
 1426 0004 00000000 		.word	Bootloader_Checksum
 1427              		.text
 1428              	.Letext0:
 1429              		.file 2 ".\\Generated_Source\\PSoC4\\cytypes.h"
 1430              		.file 3 ".\\Generated_Source\\PSoC4\\Bootloader_PVT.h"
 1431              		.file 4 ".\\Generated_Source\\PSoC4\\Bootloader.h"
 1432              		.file 5 ".\\Generated_Source\\PSoC4\\CyFlash.h"
 1433              		.file 6 ".\\Generated_Source\\PSoC4\\CyLib.h"