ARM GAS  C:\Users\PC69\AppData\Local\Temp\cc7ldeqd.s 			page 1


   1              		.cpu cortex-m0
   2              		.fpu softvfp
   3              		.eabi_attribute 20, 1
   4              		.eabi_attribute 21, 1
   5              		.eabi_attribute 23, 3
   6              		.eabi_attribute 24, 1
   7              		.eabi_attribute 25, 1
   8              		.eabi_attribute 26, 1
   9              		.eabi_attribute 30, 6
  10              		.eabi_attribute 34, 0
  11              		.eabi_attribute 18, 4
  12              		.code	16
  13              		.file	"main.c"
  14              		.text
  15              	.Ltext0:
  16              		.cfi_sections	.debug_frame
  17              		.global	result
  18              		.bss
  19              		.align	2
  20              		.type	result, %object
  21              		.size	result, 16
  22              	result:
  23 0000 00000000 		.space	16
  23      00000000 
  23      00000000 
  23      00000000 
  24              		.global	dataReady
  25              		.type	dataReady, %object
  26              		.size	dataReady, 1
  27              	dataReady:
  28 0010 00       		.space	1
  29 0011 000000   		.section	.rodata
  30              		.align	2
  31              	.LC0:
  32 0000 54455354 		.ascii	"TEST\000"
  32      00
  33 0005 000000   		.align	2
  34              	.LC5:
  35 0008 256900   		.ascii	"%i\000"
  36 000b 00       		.align	2
  37              	.LC7:
  38 000c 20202020 		.ascii	"    \000"
  38      00
  39              		.section	.text.main,"ax",%progbits
  40              		.align	2
  41              		.global	main
  42              		.code	16
  43              		.thumb_func
  44              		.type	main, %function
  45              	main:
  46              	.LFB33:
  47              		.file 1 ".\\main.c"
   1:.\main.c      **** /******************************************************************************
   2:.\main.c      **** * Project Name		: Bootloadable Blinking LED
   3:.\main.c      **** * File Name			: main.c
   4:.\main.c      **** * Version 			: 1.0
   5:.\main.c      **** * Device Used		: CY8C4245AXI-483
ARM GAS  C:\Users\PC69\AppData\Local\Temp\cc7ldeqd.s 			page 2


   6:.\main.c      **** * Software Used		: PSoC Creator 3.1
   7:.\main.c      **** * Compiler    		: ARMGCC 4.8.4, ARM RVDS Generic, ARM MDK Generic
   8:.\main.c      **** * Related Hardware	: CY8CKIT-049-42xx PSoC 4 Prototyping Kit 
   9:.\main.c      **** *
  10:.\main.c      **** ********************************************************************************
  11:.\main.c      **** * Copyright (2015), Cypress Semiconductor Corporation. All Rights Reserved.
  12:.\main.c      **** ********************************************************************************
  13:.\main.c      **** * This software is owned by Cypress Semiconductor Corporation (Cypress)
  14:.\main.c      **** * and is protected by and subject to worldwide patent protection (United
  15:.\main.c      **** * States and foreign), United States copyright laws and international treaty
  16:.\main.c      **** * provisions. Cypress hereby grants to licensee a personal, non-exclusive,
  17:.\main.c      **** * non-transferable license to copy, use, modify, create derivative works of,
  18:.\main.c      **** * and compile the Cypress Source Code and derivative works for the sole
  19:.\main.c      **** * purpose of creating custom software in support of licensee product to be
  20:.\main.c      **** * used only in conjunction with a Cypress integrated circuit as specified in
  21:.\main.c      **** * the applicable agreement. Any reproduction, modification, translation,
  22:.\main.c      **** * compilation, or representation of this software except as specified above 
  23:.\main.c      **** * is prohibited without the express written permission of Cypress.
  24:.\main.c      **** *
  25:.\main.c      **** * Disclaimer: CYPRESS MAKES NO WARRANTY OF ANY KIND, EXPRESS OR IMPLIED, WITH 
  26:.\main.c      **** * REGARD TO THIS MATERIAL, INCLUDING, BUT NOT LIMITED TO, THE IMPLIED 
  27:.\main.c      **** * WARRANTIES OF MERCHANTABILITY AND FITNESS FOR A PARTICULAR PURPOSE.
  28:.\main.c      **** * Cypress reserves the right to make changes without further notice to the 
  29:.\main.c      **** * materials described herein. Cypress does not assume any liability arising out 
  30:.\main.c      **** * of the application or use of any product or circuit described herein. Cypress 
  31:.\main.c      **** * does not authorize its products for use as critical components in life-support 
  32:.\main.c      **** * systems where a malfunction or failure may reasonably be expected to result in 
  33:.\main.c      **** * significant injury to the user. The inclusion of Cypress' product in a life-
  34:.\main.c      **** * support systems application implies that the manufacturer assumes all risk of 
  35:.\main.c      **** * such use and in doing so indemnifies Cypress against all charges. 
  36:.\main.c      **** *
  37:.\main.c      **** * Use of this Software may be limited by and subject to the applicable Cypress
  38:.\main.c      **** * software license agreement. 
  39:.\main.c      **** *******************************************************************************/
  40:.\main.c      **** 
  41:.\main.c      **** /******************************************************************************
  42:.\main.c      **** *                           THEORY OF OPERATION
  43:.\main.c      **** * This is a blinking LED project. A PWM component drives the pin to blink the 
  44:.\main.c      **** * LED at regular intervals. This project contains a bootloadable component so 
  45:.\main.c      **** * that it can be bootloaded into PSoC 4 which has a bootloader already programmed 
  46:.\main.c      **** * into it.
  47:.\main.c      **** * Default UART Port Configuration for bootloading the PSoC 4 in CY8CKIT-049-42xx
  48:.\main.c      **** * Baud Rate : 115200 bps
  49:.\main.c      **** * Data Bits : 8
  50:.\main.c      **** * Stop Bits : 1
  51:.\main.c      **** * Parity    : None
  52:.\main.c      **** ******************************************************************************/
  53:.\main.c      **** #include <project.h>
  54:.\main.c      **** #include <stdio.h>
  55:.\main.c      **** 
  56:.\main.c      **** uint16 result[8] = {0,0,0,0,0,0,0,0};
  57:.\main.c      **** uint8 dataReady = 0;
  58:.\main.c      **** 
  59:.\main.c      **** int main()
  60:.\main.c      **** {
  48              		.loc 1 60 0
  49              		.cfi_startproc
ARM GAS  C:\Users\PC69\AppData\Local\Temp\cc7ldeqd.s 			page 3


  50 0000 90B5     		push	{r4, r7, lr}
  51              		.cfi_def_cfa_offset 12
  52              		.cfi_offset 4, -12
  53              		.cfi_offset 7, -8
  54              		.cfi_offset 14, -4
  55 0002 95B0     		sub	sp, sp, #84
  56              		.cfi_def_cfa_offset 96
  57 0004 00AF     		add	r7, sp, #0
  58              		.cfi_def_cfa_register 7
  61:.\main.c      ****     /* Variables for EEPROM storage */
  62:.\main.c      ****     static const uint8 CYCODE eepromArray[]=
  63:.\main.c      ****                                 { 0x08, 0x00, 0x08, 0x00, 0x08, 0x00, 0x08, 0x00,0x08, 0x00, 0x08, 
  64:.\main.c      ****                                  /* Setting thresholds to 2048 for first start */
  65:.\main.c      ****     
  66:.\main.c      ****     cystatus status;
  67:.\main.c      ****     /* End of variables for EEPROM storage */
  68:.\main.c      ****     
  69:.\main.c      ****     EEPROM_Start(); /* Starting the EEPROM */
  59              		.loc 1 69 0
  60 0006 FFF7FEFF 		bl	EEPROM_Start
  70:.\main.c      ****    
  71:.\main.c      ****     CyGlobalIntEnable; // Enable global interrupts for proper operation of I2C
  61              		.loc 1 71 0
  62              	@ 71 ".\main.c" 1
  63 000a 62B6     		CPSIE   i
  64              	@ 0 "" 2
  72:.\main.c      ****     
  73:.\main.c      ****     /* Start the LCD */
  74:.\main.c      ****     LCD_Start();
  65              		.loc 1 74 0
  66              		.code	16
  67 000c FFF7FEFF 		bl	LCD_Start
  75:.\main.c      ****     LCD_PrintString("TEST");
  68              		.loc 1 75 0
  69 0010 844B     		ldr	r3, .L11
  70 0012 181C     		mov	r0, r3
  71 0014 FFF7FEFF 		bl	LCD_PrintString
  76:.\main.c      ****     
  77:.\main.c      ****     /* Initialize I2C component */
  78:.\main.c      ****     /* Change SCL and SDA pins drive mode to Resistive Pull Up */
  79:.\main.c      ****     I2C_scl_SetDriveMode(I2C_scl_DM_RES_UP);
  72              		.loc 1 79 0
  73 0018 0220     		mov	r0, #2
  74 001a FFF7FEFF 		bl	I2C_scl_SetDriveMode
  80:.\main.c      ****     I2C_sda_SetDriveMode(I2C_sda_DM_RES_UP);
  75              		.loc 1 80 0
  76 001e 0220     		mov	r0, #2
  77 0020 FFF7FEFF 		bl	I2C_sda_SetDriveMode
  81:.\main.c      ****     
  82:.\main.c      ****     uint8 I2C_Buffer[70]; //define the I2C Buffer
  83:.\main.c      ****     
  84:.\main.c      ****     /* 256 byte buffer with 34 r/w bytes (addr 0-31) */
  85:.\main.c      ****     I2C_EzI2CSetBuffer1(70, 34, (void *) I2C_Buffer);
  78              		.loc 1 85 0
  79 0024 3B1D     		add	r3, r7, #4
  80 0026 4620     		mov	r0, #70
  81 0028 2221     		mov	r1, #34
ARM GAS  C:\Users\PC69\AppData\Local\Temp\cc7ldeqd.s 			page 4


  82 002a 1A1C     		mov	r2, r3
  83 002c FFF7FEFF 		bl	I2C_EzI2CSetBuffer1
  86:.\main.c      ****     
  87:.\main.c      ****     I2C_Start();
  84              		.loc 1 87 0
  85 0030 FFF7FEFF 		bl	I2C_Start
  88:.\main.c      ****     /* Finished initialization of I2C component*/
  89:.\main.c      ****     
  90:.\main.c      ****     /* Initialize ADC component */
  91:.\main.c      **** 
  92:.\main.c      ****     ADC_Start(); /* Initialize ADC */
  86              		.loc 1 92 0
  87 0034 FFF7FEFF 		bl	ADC_Start
  93:.\main.c      ****     ADC_IRQ_Enable(); /* Enable ADC interrupts */
  88              		.loc 1 93 0
  89 0038 FFF7FEFF 		bl	ADC_IRQ_Enable
  94:.\main.c      ****     ADC_StartConvert(); /* Start ADC conversions */
  90              		.loc 1 94 0
  91 003c FFF7FEFF 		bl	ADC_StartConvert
  95:.\main.c      ****     
  96:.\main.c      ****     /* Finished initialization of ADC component */
  97:.\main.c      ****     
  98:.\main.c      ****     int i = 0;
  92              		.loc 1 98 0
  93 0040 0023     		mov	r3, #0
  94 0042 FB64     		str	r3, [r7, #76]
  99:.\main.c      ****        
 100:.\main.c      ****     /* Read from EEPROM to retreive previously saved thresholds*/
 101:.\main.c      **** 
 102:.\main.c      ****     for(i=0;i<70;i++)
  95              		.loc 1 102 0
  96 0044 0023     		mov	r3, #0
  97 0046 FB64     		str	r3, [r7, #76]
  98 0048 0CE0     		b	.L2
  99              	.L3:
 103:.\main.c      ****     {
 104:.\main.c      ****         I2C_Buffer[i] = *(volatile uint8 *) &eepromArray[i];
 100              		.loc 1 104 0 discriminator 3
 101 004a 774A     		ldr	r2, .L11+4
 102 004c FB6C     		ldr	r3, [r7, #76]
 103 004e D318     		add	r3, r2, r3
 104 0050 1B78     		ldrb	r3, [r3]
 105 0052 D9B2     		uxtb	r1, r3
 106 0054 3A1D     		add	r2, r7, #4
 107 0056 FB6C     		ldr	r3, [r7, #76]
 108 0058 D318     		add	r3, r2, r3
 109 005a 0A1C     		add	r2, r1, #0
 110 005c 1A70     		strb	r2, [r3]
 102:.\main.c      ****     {
 111              		.loc 1 102 0 discriminator 3
 112 005e FB6C     		ldr	r3, [r7, #76]
 113 0060 0133     		add	r3, r3, #1
 114 0062 FB64     		str	r3, [r7, #76]
 115              	.L2:
 102:.\main.c      ****     {
 116              		.loc 1 102 0 is_stmt 0 discriminator 1
 117 0064 FB6C     		ldr	r3, [r7, #76]
ARM GAS  C:\Users\PC69\AppData\Local\Temp\cc7ldeqd.s 			page 5


 118 0066 452B     		cmp	r3, #69
 119 0068 EFDD     		ble	.L3
 120              	.L10:
 105:.\main.c      ****     }
 106:.\main.c      ****     
 107:.\main.c      ****     /* End of read from EEPROM */
 108:.\main.c      **** 
 109:.\main.c      ****     //uint8 count = 0;
 110:.\main.c      **** 	for(;;)
 111:.\main.c      ****     {
 112:.\main.c      ****         if (dataReady != 0)
 121              		.loc 1 112 0 is_stmt 1
 122 006a 704B     		ldr	r3, .L11+8
 123 006c 1B78     		ldrb	r3, [r3]
 124 006e 002B     		cmp	r3, #0
 125 0070 00D1     		bne	.LCB62
 126 0072 BFE0     		b	.L4	@long jump
 127              	.LCB62:
 128              	.LBB2:
 113:.\main.c      ****         {
 114:.\main.c      ****             /* For testing only */
 115:.\main.c      ****             //count++;
 116:.\main.c      ****             //if(count == 128)count = 0;
 117:.\main.c      ****             char LCD_String[4];
 118:.\main.c      ****             sprintf(LCD_String,"%i",(int)result[0]);
 129              		.loc 1 118 0
 130 0074 6E4B     		ldr	r3, .L11+12
 131 0076 1B88     		ldrh	r3, [r3]
 132 0078 1C1C     		mov	r4, r3
 133 007a 3A1C     		mov	r2, r7
 134 007c 6D4B     		ldr	r3, .L11+16
 135 007e 101C     		mov	r0, r2
 136 0080 191C     		mov	r1, r3
 137 0082 221C     		mov	r2, r4
 138 0084 FFF7FEFF 		bl	sprintf
 119:.\main.c      ****             Debug_LED_reg_Write(result[0] / 128);
 139              		.loc 1 119 0
 140 0088 694B     		ldr	r3, .L11+12
 141 008a 1B88     		ldrh	r3, [r3]
 142 008c DB09     		lsr	r3, r3, #7
 143 008e 9BB2     		uxth	r3, r3
 144 0090 DBB2     		uxtb	r3, r3
 145 0092 181C     		mov	r0, r3
 146 0094 FFF7FEFF 		bl	Debug_LED_reg_Write
 120:.\main.c      ****             LCD_Position(0,0);
 147              		.loc 1 120 0
 148 0098 0020     		mov	r0, #0
 149 009a 0021     		mov	r1, #0
 150 009c FFF7FEFF 		bl	LCD_Position
 121:.\main.c      ****             LCD_PrintString("    ");
 151              		.loc 1 121 0
 152 00a0 654B     		ldr	r3, .L11+20
 153 00a2 181C     		mov	r0, r3
 154 00a4 FFF7FEFF 		bl	LCD_PrintString
 122:.\main.c      ****             LCD_Position(0,0);
 155              		.loc 1 122 0
 156 00a8 0020     		mov	r0, #0
ARM GAS  C:\Users\PC69\AppData\Local\Temp\cc7ldeqd.s 			page 6


 157 00aa 0021     		mov	r1, #0
 158 00ac FFF7FEFF 		bl	LCD_Position
 123:.\main.c      ****             LCD_PrintString(LCD_String);
 159              		.loc 1 123 0
 160 00b0 3B1C     		mov	r3, r7
 161 00b2 181C     		mov	r0, r3
 162 00b4 FFF7FEFF 		bl	LCD_PrintString
 124:.\main.c      ****             /* End for testing only */
 125:.\main.c      ****             dataReady = 0;
 163              		.loc 1 125 0
 164 00b8 5C4B     		ldr	r3, .L11+8
 165 00ba 0022     		mov	r2, #0
 166 00bc 1A70     		strb	r2, [r3]
 126:.\main.c      ****             /* Now comparing ADC readings to set thresholds */
 127:.\main.c      ****             I2C_Buffer[36] = result[0] >> 8;
 167              		.loc 1 127 0
 168 00be 5C4B     		ldr	r3, .L11+12
 169 00c0 1B88     		ldrh	r3, [r3]
 170 00c2 1B0A     		lsr	r3, r3, #8
 171 00c4 9BB2     		uxth	r3, r3
 172 00c6 D9B2     		uxtb	r1, r3
 173 00c8 3B1D     		add	r3, r7, #4
 174 00ca 2422     		mov	r2, #36
 175 00cc 9954     		strb	r1, [r3, r2]
 128:.\main.c      ****             I2C_Buffer[37] = result[0];
 176              		.loc 1 128 0
 177 00ce 584B     		ldr	r3, .L11+12
 178 00d0 1B88     		ldrh	r3, [r3]
 179 00d2 D9B2     		uxtb	r1, r3
 180 00d4 3B1D     		add	r3, r7, #4
 181 00d6 2522     		mov	r2, #37
 182 00d8 9954     		strb	r1, [r3, r2]
 129:.\main.c      ****             I2C_Buffer[38] = result[1] >> 8;
 183              		.loc 1 129 0
 184 00da 554B     		ldr	r3, .L11+12
 185 00dc 5B88     		ldrh	r3, [r3, #2]
 186 00de 1B0A     		lsr	r3, r3, #8
 187 00e0 9BB2     		uxth	r3, r3
 188 00e2 D9B2     		uxtb	r1, r3
 189 00e4 3B1D     		add	r3, r7, #4
 190 00e6 2622     		mov	r2, #38
 191 00e8 9954     		strb	r1, [r3, r2]
 130:.\main.c      ****             I2C_Buffer[39] = result[1];
 192              		.loc 1 130 0
 193 00ea 514B     		ldr	r3, .L11+12
 194 00ec 5B88     		ldrh	r3, [r3, #2]
 195 00ee D9B2     		uxtb	r1, r3
 196 00f0 3B1D     		add	r3, r7, #4
 197 00f2 2722     		mov	r2, #39
 198 00f4 9954     		strb	r1, [r3, r2]
 131:.\main.c      ****             I2C_Buffer[40] = result[2] >> 8;
 199              		.loc 1 131 0
 200 00f6 4E4B     		ldr	r3, .L11+12
 201 00f8 9B88     		ldrh	r3, [r3, #4]
 202 00fa 1B0A     		lsr	r3, r3, #8
 203 00fc 9BB2     		uxth	r3, r3
 204 00fe D9B2     		uxtb	r1, r3
ARM GAS  C:\Users\PC69\AppData\Local\Temp\cc7ldeqd.s 			page 7


 205 0100 3B1D     		add	r3, r7, #4
 206 0102 2822     		mov	r2, #40
 207 0104 9954     		strb	r1, [r3, r2]
 132:.\main.c      ****             I2C_Buffer[41] = result[2];
 208              		.loc 1 132 0
 209 0106 4A4B     		ldr	r3, .L11+12
 210 0108 9B88     		ldrh	r3, [r3, #4]
 211 010a D9B2     		uxtb	r1, r3
 212 010c 3B1D     		add	r3, r7, #4
 213 010e 2922     		mov	r2, #41
 214 0110 9954     		strb	r1, [r3, r2]
 133:.\main.c      ****             I2C_Buffer[42] = result[3] >> 8;
 215              		.loc 1 133 0
 216 0112 474B     		ldr	r3, .L11+12
 217 0114 DB88     		ldrh	r3, [r3, #6]
 218 0116 1B0A     		lsr	r3, r3, #8
 219 0118 9BB2     		uxth	r3, r3
 220 011a D9B2     		uxtb	r1, r3
 221 011c 3B1D     		add	r3, r7, #4
 222 011e 2A22     		mov	r2, #42
 223 0120 9954     		strb	r1, [r3, r2]
 134:.\main.c      ****             I2C_Buffer[43] = result[3];
 224              		.loc 1 134 0
 225 0122 434B     		ldr	r3, .L11+12
 226 0124 DB88     		ldrh	r3, [r3, #6]
 227 0126 D9B2     		uxtb	r1, r3
 228 0128 3B1D     		add	r3, r7, #4
 229 012a 2B22     		mov	r2, #43
 230 012c 9954     		strb	r1, [r3, r2]
 135:.\main.c      ****             I2C_Buffer[44] = result[4] >> 8;
 231              		.loc 1 135 0
 232 012e 404B     		ldr	r3, .L11+12
 233 0130 1B89     		ldrh	r3, [r3, #8]
 234 0132 1B0A     		lsr	r3, r3, #8
 235 0134 9BB2     		uxth	r3, r3
 236 0136 D9B2     		uxtb	r1, r3
 237 0138 3B1D     		add	r3, r7, #4
 238 013a 2C22     		mov	r2, #44
 239 013c 9954     		strb	r1, [r3, r2]
 136:.\main.c      ****             I2C_Buffer[45] = result[4];
 240              		.loc 1 136 0
 241 013e 3C4B     		ldr	r3, .L11+12
 242 0140 1B89     		ldrh	r3, [r3, #8]
 243 0142 D9B2     		uxtb	r1, r3
 244 0144 3B1D     		add	r3, r7, #4
 245 0146 2D22     		mov	r2, #45
 246 0148 9954     		strb	r1, [r3, r2]
 137:.\main.c      ****             I2C_Buffer[46] = result[5] >> 8;
 247              		.loc 1 137 0
 248 014a 394B     		ldr	r3, .L11+12
 249 014c 5B89     		ldrh	r3, [r3, #10]
 250 014e 1B0A     		lsr	r3, r3, #8
 251 0150 9BB2     		uxth	r3, r3
 252 0152 D9B2     		uxtb	r1, r3
 253 0154 3B1D     		add	r3, r7, #4
 254 0156 2E22     		mov	r2, #46
 255 0158 9954     		strb	r1, [r3, r2]
ARM GAS  C:\Users\PC69\AppData\Local\Temp\cc7ldeqd.s 			page 8


 138:.\main.c      ****             I2C_Buffer[47] = result[5];
 256              		.loc 1 138 0
 257 015a 354B     		ldr	r3, .L11+12
 258 015c 5B89     		ldrh	r3, [r3, #10]
 259 015e D9B2     		uxtb	r1, r3
 260 0160 3B1D     		add	r3, r7, #4
 261 0162 2F22     		mov	r2, #47
 262 0164 9954     		strb	r1, [r3, r2]
 139:.\main.c      ****             I2C_Buffer[48] = result[6] >> 8;
 263              		.loc 1 139 0
 264 0166 324B     		ldr	r3, .L11+12
 265 0168 9B89     		ldrh	r3, [r3, #12]
 266 016a 1B0A     		lsr	r3, r3, #8
 267 016c 9BB2     		uxth	r3, r3
 268 016e D9B2     		uxtb	r1, r3
 269 0170 3B1D     		add	r3, r7, #4
 270 0172 3022     		mov	r2, #48
 271 0174 9954     		strb	r1, [r3, r2]
 140:.\main.c      ****             I2C_Buffer[49] = result[6];
 272              		.loc 1 140 0
 273 0176 2E4B     		ldr	r3, .L11+12
 274 0178 9B89     		ldrh	r3, [r3, #12]
 275 017a D9B2     		uxtb	r1, r3
 276 017c 3B1D     		add	r3, r7, #4
 277 017e 3122     		mov	r2, #49
 278 0180 9954     		strb	r1, [r3, r2]
 141:.\main.c      ****             I2C_Buffer[50] = result[7] >> 8;
 279              		.loc 1 141 0
 280 0182 2B4B     		ldr	r3, .L11+12
 281 0184 DB89     		ldrh	r3, [r3, #14]
 282 0186 1B0A     		lsr	r3, r3, #8
 283 0188 9BB2     		uxth	r3, r3
 284 018a D9B2     		uxtb	r1, r3
 285 018c 3B1D     		add	r3, r7, #4
 286 018e 3222     		mov	r2, #50
 287 0190 9954     		strb	r1, [r3, r2]
 142:.\main.c      ****             I2C_Buffer[51] = result[7];
 288              		.loc 1 142 0
 289 0192 274B     		ldr	r3, .L11+12
 290 0194 DB89     		ldrh	r3, [r3, #14]
 291 0196 D9B2     		uxtb	r1, r3
 292 0198 3B1D     		add	r3, r7, #4
 293 019a 3322     		mov	r2, #51
 294 019c 9954     		strb	r1, [r3, r2]
 143:.\main.c      ****             for(i=0; i<8;i++)
 295              		.loc 1 143 0
 296 019e 0023     		mov	r3, #0
 297 01a0 FB64     		str	r3, [r7, #76]
 298 01a2 24E0     		b	.L5
 299              	.L7:
 144:.\main.c      ****             {
 145:.\main.c      ****                 if(result[i] > (I2C_Buffer[2*i] * 256 + I2C_Buffer[2*i + 1]))I2C_Buffer[34] |= (1<<
 300              		.loc 1 145 0
 301 01a4 224B     		ldr	r3, .L11+12
 302 01a6 FA6C     		ldr	r2, [r7, #76]
 303 01a8 5200     		lsl	r2, r2, #1
 304 01aa D35A     		ldrh	r3, [r2, r3]
ARM GAS  C:\Users\PC69\AppData\Local\Temp\cc7ldeqd.s 			page 9


 305 01ac 181C     		mov	r0, r3
 306 01ae FB6C     		ldr	r3, [r7, #76]
 307 01b0 5B00     		lsl	r3, r3, #1
 308 01b2 3A1D     		add	r2, r7, #4
 309 01b4 D35C     		ldrb	r3, [r2, r3]
 310 01b6 1B02     		lsl	r3, r3, #8
 311 01b8 FA6C     		ldr	r2, [r7, #76]
 312 01ba 5200     		lsl	r2, r2, #1
 313 01bc 0132     		add	r2, r2, #1
 314 01be 391D     		add	r1, r7, #4
 315 01c0 8A5C     		ldrb	r2, [r1, r2]
 316 01c2 9B18     		add	r3, r3, r2
 317 01c4 9842     		cmp	r0, r3
 318 01c6 0FDD     		ble	.L6
 319              		.loc 1 145 0 is_stmt 0 discriminator 1
 320 01c8 3B1D     		add	r3, r7, #4
 321 01ca 2222     		mov	r2, #34
 322 01cc 9B5C     		ldrb	r3, [r3, r2]
 323 01ce D9B2     		uxtb	r1, r3
 324 01d0 0122     		mov	r2, #1
 325 01d2 FB6C     		ldr	r3, [r7, #76]
 326 01d4 9A40     		lsl	r2, r2, r3
 327 01d6 131C     		mov	r3, r2
 328 01d8 DBB2     		uxtb	r3, r3
 329 01da 0A1C     		add	r2, r1, #0
 330 01dc 1343     		orr	r3, r2
 331 01de DBB2     		uxtb	r3, r3
 332 01e0 D9B2     		uxtb	r1, r3
 333 01e2 3B1D     		add	r3, r7, #4
 334 01e4 2222     		mov	r2, #34
 335 01e6 9954     		strb	r1, [r3, r2]
 336              	.L6:
 143:.\main.c      ****             for(i=0; i<8;i++)
 337              		.loc 1 143 0 is_stmt 1 discriminator 2
 338 01e8 FB6C     		ldr	r3, [r7, #76]
 339 01ea 0133     		add	r3, r3, #1
 340 01ec FB64     		str	r3, [r7, #76]
 341              	.L5:
 143:.\main.c      ****             for(i=0; i<8;i++)
 342              		.loc 1 143 0 is_stmt 0 discriminator 1
 343 01ee FB6C     		ldr	r3, [r7, #76]
 344 01f0 072B     		cmp	r3, #7
 345 01f2 D7DD     		ble	.L7
 346              	.L4:
 347              	.LBE2:
 146:.\main.c      ****             }
 147:.\main.c      ****         }
 148:.\main.c      ****         if(I2C_Buffer[33] != 0) /* Reset triggers */
 348              		.loc 1 148 0 is_stmt 1
 349 01f4 3B1D     		add	r3, r7, #4
 350 01f6 2122     		mov	r2, #33
 351 01f8 9B5C     		ldrb	r3, [r3, r2]
 352 01fa 002B     		cmp	r3, #0
 353 01fc 07D0     		beq	.L8
 149:.\main.c      ****         {
 150:.\main.c      ****             I2C_Buffer[33] = 0;
 354              		.loc 1 150 0
ARM GAS  C:\Users\PC69\AppData\Local\Temp\cc7ldeqd.s 			page 10


 355 01fe 3B1D     		add	r3, r7, #4
 356 0200 2122     		mov	r2, #33
 357 0202 0021     		mov	r1, #0
 358 0204 9954     		strb	r1, [r3, r2]
 151:.\main.c      ****             I2C_Buffer[34] = 0;
 359              		.loc 1 151 0
 360 0206 3B1D     		add	r3, r7, #4
 361 0208 2222     		mov	r2, #34
 362 020a 0021     		mov	r1, #0
 363 020c 9954     		strb	r1, [r3, r2]
 364              	.L8:
 152:.\main.c      ****         }
 153:.\main.c      ****         if(I2C_Buffer[32] != 0) /* EEPROM write */
 365              		.loc 1 153 0
 366 020e 3B1D     		add	r3, r7, #4
 367 0210 2022     		mov	r2, #32
 368 0212 9B5C     		ldrb	r3, [r3, r2]
 369 0214 002B     		cmp	r3, #0
 370 0216 03D0     		beq	.L9
 154:.\main.c      ****         {
 155:.\main.c      ****             I2C_Buffer[32] = 0;
 371              		.loc 1 155 0
 372 0218 3B1D     		add	r3, r7, #4
 373 021a 2022     		mov	r2, #32
 374 021c 0021     		mov	r1, #0
 375 021e 9954     		strb	r1, [r3, r2]
 376              	.L9:
 156:.\main.c      ****             
 157:.\main.c      ****             /* EEPROM doesn't work because of bootloader bug */
 158:.\main.c      ****             
 159:.\main.c      ****             /* Write to EEPROM */
 160:.\main.c      ****       
 161:.\main.c      ****             //status = EEPROM_Write(I2C_Buffer,eepromArray,70u);
 162:.\main.c      ****               
 163:.\main.c      ****             //if (CYRET_SUCCESS != status)
 164:.\main.c      ****             //{
 165:.\main.c      ****                 /* There was a problem writing to EEPROM */
 166:.\main.c      ****             //}
 167:.\main.c      ****     
 168:.\main.c      ****             /* End of write to EEPROM */
 169:.\main.c      ****         }
 170:.\main.c      ****     }
 377              		.loc 1 170 0
 378 0220 23E7     		b	.L10
 379              	.L12:
 380 0222 C046     		.align	2
 381              	.L11:
 382 0224 00000000 		.word	.LC0
 383 0228 14000000 		.word	eepromArray.6073
 384 022c 00000000 		.word	dataReady
 385 0230 00000000 		.word	result
 386 0234 08000000 		.word	.LC5
 387 0238 0C000000 		.word	.LC7
 388              		.cfi_endproc
 389              	.LFE33:
 390              		.size	main, .-main
 391              		.section	.rodata
ARM GAS  C:\Users\PC69\AppData\Local\Temp\cc7ldeqd.s 			page 11


 392 0011 000000   		.align	2
 393              		.type	eepromArray.6073, %object
 394              		.size	eepromArray.6073, 69
 395              	eepromArray.6073:
 396 0014 08       		.byte	8
 397 0015 00       		.byte	0
 398 0016 08       		.byte	8
 399 0017 00       		.byte	0
 400 0018 08       		.byte	8
 401 0019 00       		.byte	0
 402 001a 08       		.byte	8
 403 001b 00       		.byte	0
 404 001c 08       		.byte	8
 405 001d 00       		.byte	0
 406 001e 08       		.byte	8
 407 001f 00       		.byte	0
 408 0020 08       		.byte	8
 409 0021 00       		.byte	0
 410 0022 08       		.byte	8
 411 0023 00       		.byte	0
 412 0024 08       		.byte	8
 413 0025 00       		.byte	0
 414 0026 08       		.byte	8
 415 0027 00       		.byte	0
 416 0028 08       		.byte	8
 417 0029 00       		.byte	0
 418 002a 08       		.byte	8
 419 002b 00       		.byte	0
 420 002c 08       		.byte	8
 421 002d 00       		.byte	0
 422 002e 08       		.byte	8
 423 002f 00       		.byte	0
 424 0030 00       		.byte	0
 425 0031 00       		.byte	0
 426 0032 00       		.byte	0
 427 0033 00       		.byte	0
 428 0034 00       		.byte	0
 429 0035 00       		.byte	0
 430 0036 00       		.byte	0
 431 0037 00       		.byte	0
 432 0038 00       		.byte	0
 433 0039 00       		.byte	0
 434 003a 00       		.byte	0
 435 003b 00       		.byte	0
 436 003c 00       		.byte	0
 437 003d 00       		.byte	0
 438 003e 00       		.byte	0
 439 003f 00       		.byte	0
 440 0040 00       		.byte	0
 441 0041 00       		.byte	0
 442 0042 00       		.byte	0
 443 0043 00       		.byte	0
 444 0044 00       		.byte	0
 445 0045 00       		.byte	0
 446 0046 00       		.byte	0
 447 0047 00       		.byte	0
 448 0048 00       		.byte	0
ARM GAS  C:\Users\PC69\AppData\Local\Temp\cc7ldeqd.s 			page 12


 449 0049 00       		.byte	0
 450 004a 00       		.byte	0
 451 004b 00       		.byte	0
 452 004c 00       		.byte	0
 453 004d 00       		.byte	0
 454 004e 00       		.byte	0
 455 004f 00       		.byte	0
 456 0050 00       		.byte	0
 457 0051 00       		.byte	0
 458 0052 00       		.byte	0
 459 0053 00       		.byte	0
 460 0054 00       		.byte	0
 461 0055 00       		.byte	0
 462 0056 00       		.byte	0
 463 0057 00       		.byte	0
 464 0058 00       		.byte	0
 465 0059 000000   		.text
 466              	.Letext0:
 467              		.file 2 "Generated_Source\\PSoC4/cytypes.h"